	.section	__TEXT,__text,regular,pure_instructions
	.build_version macos, 15, 0	sdk_version 15, 2
	.globl	__Z8wht_neonRNSt3__16vectorIfNS_9allocatorIfEEEE ; -- Begin function _Z8wht_neonRNSt3__16vectorIfNS_9allocatorIfEEEE
	.p2align	2
__Z8wht_neonRNSt3__16vectorIfNS_9allocatorIfEEEE: ; @_Z8wht_neonRNSt3__16vectorIfNS_9allocatorIfEEEE
	.cfi_startproc
; %bb.0:
	sub	sp, sp, #352
	stp	x28, x27, [sp, #320]            ; 16-byte Folded Spill
	stp	x29, x30, [sp, #336]            ; 16-byte Folded Spill
	add	x29, sp, #336
	.cfi_def_cfa w29, 16
	.cfi_offset w30, -8
	.cfi_offset w29, -16
	.cfi_offset w27, -24
	.cfi_offset w28, -32
	add	x8, sp, #160
	str	x8, [sp, #16]                   ; 8-byte Folded Spill
	stur	x0, [x29, #-120]
	ldur	x0, [x29, #-120]
	bl	__ZNKSt3__16vectorIfNS_9allocatorIfEEE4sizeB8ne180100Ev
	mov	x8, x0
	stur	w8, [x29, #-124]
	mov	w8, #1                          ; =0x1
	stur	w8, [x29, #-128]
	b	LBB0_1
LBB0_1:                                 ; =>This Loop Header: Depth=1
                                        ;     Child Loop BB0_3 Depth 2
                                        ;       Child Loop BB0_5 Depth 3
                                        ;       Child Loop BB0_9 Depth 3
	ldur	w8, [x29, #-128]
	ldur	w9, [x29, #-124]
	subs	w8, w8, w9
	cset	w8, ge
	tbnz	w8, #0, LBB0_16
	b	LBB0_2
LBB0_2:                                 ;   in Loop: Header=BB0_1 Depth=1
	stur	wzr, [x29, #-132]
	b	LBB0_3
LBB0_3:                                 ;   Parent Loop BB0_1 Depth=1
                                        ; =>  This Loop Header: Depth=2
                                        ;       Child Loop BB0_5 Depth 3
                                        ;       Child Loop BB0_9 Depth 3
	ldur	w8, [x29, #-132]
	ldur	w9, [x29, #-124]
	subs	w8, w8, w9
	cset	w8, ge
	tbnz	w8, #0, LBB0_14
	b	LBB0_4
LBB0_4:                                 ;   in Loop: Header=BB0_3 Depth=2
	stur	wzr, [x29, #-136]
	b	LBB0_5
LBB0_5:                                 ;   Parent Loop BB0_1 Depth=1
                                        ;     Parent Loop BB0_3 Depth=2
                                        ; =>    This Inner Loop Header: Depth=3
	ldur	w8, [x29, #-136]
	add	w8, w8, #4
	ldur	w9, [x29, #-128]
	subs	w8, w8, w9
	cset	w8, gt
	tbnz	w8, #0, LBB0_8
	b	LBB0_6
LBB0_6:                                 ;   in Loop: Header=BB0_5 Depth=3
	ldur	x0, [x29, #-120]
	ldur	w8, [x29, #-132]
	ldur	w9, [x29, #-136]
	add	w9, w8, w9
                                        ; implicit-def: $x8
	mov	x8, x9
	sxtw	x1, w8
	bl	__ZNSt3__16vectorIfNS_9allocatorIfEEEixB8ne180100Em
	ldr	x8, [sp, #16]                   ; 8-byte Folded Reload
	ldr	q0, [x0]
	str	q0, [x8]
	ldr	q0, [x8]
	str	q0, [sp, #144]
	ldr	q0, [sp, #144]
	str	q0, [x8, #16]
	ldur	x0, [x29, #-120]
	ldur	w8, [x29, #-132]
	ldur	w9, [x29, #-136]
	add	w8, w8, w9
	ldur	w9, [x29, #-128]
	add	w9, w8, w9
                                        ; implicit-def: $x8
	mov	x8, x9
	sxtw	x1, w8
	bl	__ZNSt3__16vectorIfNS_9allocatorIfEEEixB8ne180100Em
	ldr	x8, [sp, #16]                   ; 8-byte Folded Reload
	ldr	q0, [x0]
	str	q0, [sp, #112]
	ldr	q0, [sp, #112]
	str	q0, [sp, #96]
	ldr	q0, [sp, #96]
	str	q0, [sp, #128]
	ldr	q1, [x8, #16]
	ldr	q0, [sp, #128]
	str	q1, [x8, #96]
	str	q0, [x8, #80]
	ldr	q0, [x8, #96]
	ldr	q1, [x8, #80]
	fadd.4s	v0, v0, v1
	str	q0, [x8, #64]
	ldr	q0, [x8, #64]
	str	q0, [sp, #80]
	ldr	q1, [x8, #16]
	ldr	q0, [sp, #128]
	str	q1, [x8, #144]
	str	q0, [x8, #128]
	ldr	q0, [x8, #144]
	ldr	q1, [x8, #128]
	fsub.4s	v0, v0, v1
	str	q0, [x8, #112]
	ldr	q0, [x8, #112]
	str	q0, [sp, #64]
	ldr	q0, [sp, #80]
	str	q0, [sp, #48]
	ldur	x0, [x29, #-120]
	ldur	w8, [x29, #-132]
	ldur	w9, [x29, #-136]
	add	w9, w8, w9
                                        ; implicit-def: $x8
	mov	x8, x9
	sxtw	x1, w8
	bl	__ZNSt3__16vectorIfNS_9allocatorIfEEEixB8ne180100Em
	ldr	q0, [sp, #48]
	str	q0, [x0]
	ldr	q0, [sp, #64]
	str	q0, [sp, #32]
	ldur	x0, [x29, #-120]
	ldur	w8, [x29, #-132]
	ldur	w9, [x29, #-136]
	add	w8, w8, w9
	ldur	w9, [x29, #-128]
	add	w9, w8, w9
                                        ; implicit-def: $x8
	mov	x8, x9
	sxtw	x1, w8
	bl	__ZNSt3__16vectorIfNS_9allocatorIfEEEixB8ne180100Em
	ldr	q0, [sp, #32]
	str	q0, [x0]
	b	LBB0_7
LBB0_7:                                 ;   in Loop: Header=BB0_5 Depth=3
	ldur	w8, [x29, #-136]
	add	w8, w8, #4
	stur	w8, [x29, #-136]
	b	LBB0_5
LBB0_8:                                 ;   in Loop: Header=BB0_3 Depth=2
	b	LBB0_9
LBB0_9:                                 ;   Parent Loop BB0_1 Depth=1
                                        ;     Parent Loop BB0_3 Depth=2
                                        ; =>    This Inner Loop Header: Depth=3
	ldur	w8, [x29, #-136]
	ldur	w9, [x29, #-128]
	subs	w8, w8, w9
	cset	w8, ge
	tbnz	w8, #0, LBB0_12
	b	LBB0_10
LBB0_10:                                ;   in Loop: Header=BB0_9 Depth=3
	ldur	x0, [x29, #-120]
	ldur	w8, [x29, #-132]
	ldur	w9, [x29, #-136]
	add	w9, w8, w9
                                        ; implicit-def: $x8
	mov	x8, x9
	sxtw	x1, w8
	bl	__ZNSt3__16vectorIfNS_9allocatorIfEEEixB8ne180100Em
	ldr	s0, [x0]
	str	s0, [sp, #28]
	ldur	x0, [x29, #-120]
	ldur	w8, [x29, #-132]
	ldur	w9, [x29, #-136]
	add	w8, w8, w9
	ldur	w9, [x29, #-128]
	add	w9, w8, w9
                                        ; implicit-def: $x8
	mov	x8, x9
	sxtw	x1, w8
	bl	__ZNSt3__16vectorIfNS_9allocatorIfEEEixB8ne180100Em
	ldr	s0, [x0]
	str	s0, [sp, #24]
	ldr	s0, [sp, #28]
	ldr	s1, [sp, #24]
	fadd	s0, s0, s1
	str	s0, [sp, #8]                    ; 4-byte Folded Spill
	ldur	x0, [x29, #-120]
	ldur	w8, [x29, #-132]
	ldur	w9, [x29, #-136]
	add	w9, w8, w9
                                        ; implicit-def: $x8
	mov	x8, x9
	sxtw	x1, w8
	bl	__ZNSt3__16vectorIfNS_9allocatorIfEEEixB8ne180100Em
	ldr	s0, [sp, #8]                    ; 4-byte Folded Reload
	str	s0, [x0]
	ldr	s0, [sp, #28]
	ldr	s1, [sp, #24]
	fsub	s0, s0, s1
	str	s0, [sp, #12]                   ; 4-byte Folded Spill
	ldur	x0, [x29, #-120]
	ldur	w8, [x29, #-132]
	ldur	w9, [x29, #-136]
	add	w8, w8, w9
	ldur	w9, [x29, #-128]
	add	w9, w8, w9
                                        ; implicit-def: $x8
	mov	x8, x9
	sxtw	x1, w8
	bl	__ZNSt3__16vectorIfNS_9allocatorIfEEEixB8ne180100Em
	ldr	s0, [sp, #12]                   ; 4-byte Folded Reload
	str	s0, [x0]
	b	LBB0_11
LBB0_11:                                ;   in Loop: Header=BB0_9 Depth=3
	ldur	w8, [x29, #-136]
	add	w8, w8, #1
	stur	w8, [x29, #-136]
	b	LBB0_9
LBB0_12:                                ;   in Loop: Header=BB0_3 Depth=2
	b	LBB0_13
LBB0_13:                                ;   in Loop: Header=BB0_3 Depth=2
	ldur	w9, [x29, #-128]
	mov	w8, #2                          ; =0x2
	mul	w9, w8, w9
	ldur	w8, [x29, #-132]
	add	w8, w8, w9
	stur	w8, [x29, #-132]
	b	LBB0_3
LBB0_14:                                ;   in Loop: Header=BB0_1 Depth=1
	b	LBB0_15
LBB0_15:                                ;   in Loop: Header=BB0_1 Depth=1
	ldur	w8, [x29, #-128]
	lsl	w8, w8, #1
	stur	w8, [x29, #-128]
	b	LBB0_1
LBB0_16:
	ldp	x29, x30, [sp, #336]            ; 16-byte Folded Reload
	ldp	x28, x27, [sp, #320]            ; 16-byte Folded Reload
	add	sp, sp, #352
	ret
	.cfi_endproc
                                        ; -- End function
	.private_extern	__ZNKSt3__16vectorIfNS_9allocatorIfEEE4sizeB8ne180100Ev ; -- Begin function _ZNKSt3__16vectorIfNS_9allocatorIfEEE4sizeB8ne180100Ev
	.globl	__ZNKSt3__16vectorIfNS_9allocatorIfEEE4sizeB8ne180100Ev
	.weak_definition	__ZNKSt3__16vectorIfNS_9allocatorIfEEE4sizeB8ne180100Ev
	.p2align	2
__ZNKSt3__16vectorIfNS_9allocatorIfEEE4sizeB8ne180100Ev: ; @_ZNKSt3__16vectorIfNS_9allocatorIfEEE4sizeB8ne180100Ev
	.cfi_startproc
; %bb.0:
	sub	sp, sp, #16
	.cfi_def_cfa_offset 16
	str	x0, [sp, #8]
	ldr	x9, [sp, #8]
	ldr	x8, [x9, #8]
	ldr	x9, [x9]
	subs	x8, x8, x9
	mov	x9, #4                          ; =0x4
	sdiv	x0, x8, x9
	add	sp, sp, #16
	ret
	.cfi_endproc
                                        ; -- End function
	.private_extern	__ZNSt3__16vectorIfNS_9allocatorIfEEEixB8ne180100Em ; -- Begin function _ZNSt3__16vectorIfNS_9allocatorIfEEEixB8ne180100Em
	.globl	__ZNSt3__16vectorIfNS_9allocatorIfEEEixB8ne180100Em
	.weak_definition	__ZNSt3__16vectorIfNS_9allocatorIfEEEixB8ne180100Em
	.p2align	2
__ZNSt3__16vectorIfNS_9allocatorIfEEEixB8ne180100Em: ; @_ZNSt3__16vectorIfNS_9allocatorIfEEEixB8ne180100Em
	.cfi_startproc
; %bb.0:
	sub	sp, sp, #16
	.cfi_def_cfa_offset 16
	str	x0, [sp, #8]
	str	x1, [sp]
	ldr	x8, [sp, #8]
	ldr	x8, [x8]
	ldr	x9, [sp]
	add	x0, x8, x9, lsl #2
	add	sp, sp, #16
	ret
	.cfi_endproc
                                        ; -- End function
	.globl	_main                           ; -- Begin function main
	.p2align	2
_main:                                  ; @main
Lfunc_begin0:
	.cfi_startproc
	.cfi_personality 155, ___gxx_personality_v0
	.cfi_lsda 16, Lexception0
; %bb.0:
	stp	x28, x27, [sp, #-32]!           ; 16-byte Folded Spill
	stp	x29, x30, [sp, #16]             ; 16-byte Folded Spill
	add	x29, sp, #16
	sub	sp, sp, #2624
	.cfi_def_cfa w29, 16
	.cfi_offset w30, -8
	.cfi_offset w29, -16
	.cfi_offset w27, -24
	.cfi_offset w28, -32
	stur	wzr, [x29, #-20]
	sub	x0, x29, #24
	str	x0, [sp, #16]                   ; 8-byte Folded Spill
	bl	__ZNSt3__113random_deviceC1B8ne180100Ev
	ldr	x0, [sp, #16]                   ; 8-byte Folded Reload
Ltmp2:
	bl	__ZNSt3__113random_deviceclEv
	str	w0, [sp, #28]                   ; 4-byte Folded Spill
Ltmp3:
	b	LBB3_1
LBB3_1:
Ltmp4:
	ldr	w1, [sp, #28]                   ; 4-byte Folded Reload
	add	x0, sp, #112
	bl	__ZNSt3__123mersenne_twister_engineIjLm32ELm624ELm397ELm31ELj2567483615ELm11ELj4294967295ELm7ELj2636928640ELm15ELj4022730752ELm18ELj1812433253EEC1B8ne180100Ej
Ltmp5:
	b	LBB3_2
LBB3_2:
Ltmp6:
	add	x0, sp, #92
	fmov	s0, #-1.00000000
	fmov	s1, #1.00000000
	bl	__ZNSt3__125uniform_real_distributionIfEC1B8ne180100Eff
Ltmp7:
	b	LBB3_3
LBB3_3:
Ltmp8:
	add	x0, sp, #64
	mov	x1, #64                         ; =0x40
	bl	__ZNSt3__16vectorIfNS_9allocatorIfEEEC1Em
Ltmp9:
	b	LBB3_4
LBB3_4:
	add	x8, sp, #64
	str	x8, [sp, #56]
	ldr	x0, [sp, #56]
	bl	__ZNSt3__16vectorIfNS_9allocatorIfEEE5beginB8ne180100Ev
	str	x0, [sp, #48]
	ldr	x0, [sp, #56]
	bl	__ZNSt3__16vectorIfNS_9allocatorIfEEE3endB8ne180100Ev
	str	x0, [sp, #40]
	b	LBB3_5
LBB3_5:                                 ; =>This Inner Loop Header: Depth=1
	add	x0, sp, #48
	add	x1, sp, #40
	bl	__ZNSt3__1neB8ne180100IPfEEbRKNS_11__wrap_iterIT_EES6_
	tbz	w0, #0, LBB3_11
	b	LBB3_6
LBB3_6:                                 ;   in Loop: Header=BB3_5 Depth=1
	add	x0, sp, #48
	bl	__ZNKSt3__111__wrap_iterIPfEdeB8ne180100Ev
	str	x0, [sp, #32]
Ltmp13:
	add	x0, sp, #92
	add	x1, sp, #112
	bl	__ZNSt3__125uniform_real_distributionIfEclB8ne180100INS_23mersenne_twister_engineIjLm32ELm624ELm397ELm31ELj2567483615ELm11ELj4294967295ELm7ELj2636928640ELm15ELj4022730752ELm18ELj1812433253EEEEEfRT_
	str	s0, [sp, #12]                   ; 4-byte Folded Spill
Ltmp14:
	b	LBB3_7
LBB3_7:                                 ;   in Loop: Header=BB3_5 Depth=1
	ldr	s0, [sp, #12]                   ; 4-byte Folded Reload
	ldr	x8, [sp, #32]
	str	s0, [x8]
	b	LBB3_8
LBB3_8:                                 ;   in Loop: Header=BB3_5 Depth=1
	add	x0, sp, #48
	bl	__ZNSt3__111__wrap_iterIPfEppB8ne180100Ev
	b	LBB3_5
LBB3_9:
Ltmp10:
	str	x0, [sp, #104]
	mov	x8, x1
	str	w8, [sp, #100]
	b	LBB3_13
LBB3_10:
Ltmp15:
	str	x0, [sp, #104]
	mov	x8, x1
	str	w8, [sp, #100]
	add	x0, sp, #64
	bl	__ZNSt3__16vectorIfNS_9allocatorIfEEED1B8ne180100Ev
	b	LBB3_13
LBB3_11:
Ltmp11:
	add	x0, sp, #64
	bl	__Z8wht_neonRNSt3__16vectorIfNS_9allocatorIfEEEE
Ltmp12:
	b	LBB3_12
LBB3_12:
	add	x0, sp, #64
	bl	__ZNSt3__16vectorIfNS_9allocatorIfEEED1B8ne180100Ev
	sub	x0, x29, #24
	bl	__ZNSt3__113random_deviceD1Ev
	ldur	w0, [x29, #-20]
	add	sp, sp, #2624
	ldp	x29, x30, [sp, #16]             ; 16-byte Folded Reload
	ldp	x28, x27, [sp], #32             ; 16-byte Folded Reload
	ret
LBB3_13:
	sub	x0, x29, #24
	bl	__ZNSt3__113random_deviceD1Ev
	b	LBB3_14
LBB3_14:
	ldr	x0, [sp, #104]
	bl	__Unwind_Resume
Lfunc_end0:
	.cfi_endproc
	.section	__TEXT,__gcc_except_tab
	.p2align	2, 0x0
GCC_except_table3:
Lexception0:
	.byte	255                             ; @LPStart Encoding = omit
	.byte	255                             ; @TType Encoding = omit
	.byte	1                               ; Call site Encoding = uleb128
	.uleb128 Lcst_end0-Lcst_begin0
Lcst_begin0:
	.uleb128 Lfunc_begin0-Lfunc_begin0      ; >> Call Site 1 <<
	.uleb128 Ltmp2-Lfunc_begin0             ;   Call between Lfunc_begin0 and Ltmp2
	.byte	0                               ;     has no landing pad
	.byte	0                               ;   On action: cleanup
	.uleb128 Ltmp2-Lfunc_begin0             ; >> Call Site 2 <<
	.uleb128 Ltmp9-Ltmp2                    ;   Call between Ltmp2 and Ltmp9
	.uleb128 Ltmp10-Lfunc_begin0            ;     jumps to Ltmp10
	.byte	0                               ;   On action: cleanup
	.uleb128 Ltmp13-Lfunc_begin0            ; >> Call Site 3 <<
	.uleb128 Ltmp12-Ltmp13                  ;   Call between Ltmp13 and Ltmp12
	.uleb128 Ltmp15-Lfunc_begin0            ;     jumps to Ltmp15
	.byte	0                               ;   On action: cleanup
	.uleb128 Ltmp12-Lfunc_begin0            ; >> Call Site 4 <<
	.uleb128 Lfunc_end0-Ltmp12              ;   Call between Ltmp12 and Lfunc_end0
	.byte	0                               ;     has no landing pad
	.byte	0                               ;   On action: cleanup
Lcst_end0:
	.p2align	2, 0x0
                                        ; -- End function
	.section	__TEXT,__text,regular,pure_instructions
	.private_extern	__ZNSt3__113random_deviceC1B8ne180100Ev ; -- Begin function _ZNSt3__113random_deviceC1B8ne180100Ev
	.globl	__ZNSt3__113random_deviceC1B8ne180100Ev
	.weak_def_can_be_hidden	__ZNSt3__113random_deviceC1B8ne180100Ev
	.p2align	2
__ZNSt3__113random_deviceC1B8ne180100Ev: ; @_ZNSt3__113random_deviceC1B8ne180100Ev
Lfunc_begin1:
	.cfi_startproc
	.cfi_personality 155, ___gxx_personality_v0
	.cfi_lsda 16, Lexception1
; %bb.0:
	sub	sp, sp, #80
	stp	x29, x30, [sp, #64]             ; 16-byte Folded Spill
	add	x29, sp, #64
	.cfi_def_cfa w29, 16
	.cfi_offset w30, -8
	.cfi_offset w29, -16
	stur	x0, [x29, #-8]
	ldur	x8, [x29, #-8]
	str	x8, [sp]                        ; 8-byte Folded Spill
	add	x0, sp, #32
	str	x0, [sp, #8]                    ; 8-byte Folded Spill
	adrp	x1, l_.str@PAGE
	add	x1, x1, l_.str@PAGEOFF
	bl	__ZNSt3__112basic_stringIcNS_11char_traitsIcEENS_9allocatorIcEEEC1B8ne180100ILi0EEEPKc
	ldr	x0, [sp]                        ; 8-byte Folded Reload
	ldr	x1, [sp, #8]                    ; 8-byte Folded Reload
Ltmp16:
	bl	__ZNSt3__113random_deviceC1ERKNS_12basic_stringIcNS_11char_traitsIcEENS_9allocatorIcEEEE
Ltmp17:
	b	LBB4_1
LBB4_1:
	add	x0, sp, #32
	bl	__ZNSt3__112basic_stringIcNS_11char_traitsIcEENS_9allocatorIcEEED1Ev
	ldr	x0, [sp]                        ; 8-byte Folded Reload
	ldp	x29, x30, [sp, #64]             ; 16-byte Folded Reload
	add	sp, sp, #80
	ret
LBB4_2:
Ltmp18:
	str	x0, [sp, #24]
	mov	x8, x1
	str	w8, [sp, #20]
	add	x0, sp, #32
	bl	__ZNSt3__112basic_stringIcNS_11char_traitsIcEENS_9allocatorIcEEED1Ev
	b	LBB4_3
LBB4_3:
	ldr	x0, [sp, #24]
	bl	__Unwind_Resume
Lfunc_end1:
	.cfi_endproc
	.section	__TEXT,__gcc_except_tab
	.p2align	2, 0x0
GCC_except_table4:
Lexception1:
	.byte	255                             ; @LPStart Encoding = omit
	.byte	255                             ; @TType Encoding = omit
	.byte	1                               ; Call site Encoding = uleb128
	.uleb128 Lcst_end1-Lcst_begin1
Lcst_begin1:
	.uleb128 Lfunc_begin1-Lfunc_begin1      ; >> Call Site 1 <<
	.uleb128 Ltmp16-Lfunc_begin1            ;   Call between Lfunc_begin1 and Ltmp16
	.byte	0                               ;     has no landing pad
	.byte	0                               ;   On action: cleanup
	.uleb128 Ltmp16-Lfunc_begin1            ; >> Call Site 2 <<
	.uleb128 Ltmp17-Ltmp16                  ;   Call between Ltmp16 and Ltmp17
	.uleb128 Ltmp18-Lfunc_begin1            ;     jumps to Ltmp18
	.byte	0                               ;   On action: cleanup
	.uleb128 Ltmp17-Lfunc_begin1            ; >> Call Site 3 <<
	.uleb128 Lfunc_end1-Ltmp17              ;   Call between Ltmp17 and Lfunc_end1
	.byte	0                               ;     has no landing pad
	.byte	0                               ;   On action: cleanup
Lcst_end1:
	.p2align	2, 0x0
                                        ; -- End function
	.section	__TEXT,__text,regular,pure_instructions
	.private_extern	__ZNSt3__123mersenne_twister_engineIjLm32ELm624ELm397ELm31ELj2567483615ELm11ELj4294967295ELm7ELj2636928640ELm15ELj4022730752ELm18ELj1812433253EEC1B8ne180100Ej ; -- Begin function _ZNSt3__123mersenne_twister_engineIjLm32ELm624ELm397ELm31ELj2567483615ELm11ELj4294967295ELm7ELj2636928640ELm15ELj4022730752ELm18ELj1812433253EEC1B8ne180100Ej
	.globl	__ZNSt3__123mersenne_twister_engineIjLm32ELm624ELm397ELm31ELj2567483615ELm11ELj4294967295ELm7ELj2636928640ELm15ELj4022730752ELm18ELj1812433253EEC1B8ne180100Ej
	.weak_def_can_be_hidden	__ZNSt3__123mersenne_twister_engineIjLm32ELm624ELm397ELm31ELj2567483615ELm11ELj4294967295ELm7ELj2636928640ELm15ELj4022730752ELm18ELj1812433253EEC1B8ne180100Ej
	.p2align	2
__ZNSt3__123mersenne_twister_engineIjLm32ELm624ELm397ELm31ELj2567483615ELm11ELj4294967295ELm7ELj2636928640ELm15ELj4022730752ELm18ELj1812433253EEC1B8ne180100Ej: ; @_ZNSt3__123mersenne_twister_engineIjLm32ELm624ELm397ELm31ELj2567483615ELm11ELj4294967295ELm7ELj2636928640ELm15ELj4022730752ELm18ELj1812433253EEC1B8ne180100Ej
	.cfi_startproc
; %bb.0:
	sub	sp, sp, #48
	stp	x29, x30, [sp, #32]             ; 16-byte Folded Spill
	add	x29, sp, #32
	.cfi_def_cfa w29, 16
	.cfi_offset w30, -8
	.cfi_offset w29, -16
	stur	x0, [x29, #-8]
	stur	w1, [x29, #-12]
	ldur	x0, [x29, #-8]
	str	x0, [sp, #8]                    ; 8-byte Folded Spill
	ldur	w1, [x29, #-12]
	bl	__ZNSt3__123mersenne_twister_engineIjLm32ELm624ELm397ELm31ELj2567483615ELm11ELj4294967295ELm7ELj2636928640ELm15ELj4022730752ELm18ELj1812433253EEC2B8ne180100Ej
	ldr	x0, [sp, #8]                    ; 8-byte Folded Reload
	ldp	x29, x30, [sp, #32]             ; 16-byte Folded Reload
	add	sp, sp, #48
	ret
	.cfi_endproc
                                        ; -- End function
	.private_extern	__ZNSt3__125uniform_real_distributionIfEC1B8ne180100Eff ; -- Begin function _ZNSt3__125uniform_real_distributionIfEC1B8ne180100Eff
	.globl	__ZNSt3__125uniform_real_distributionIfEC1B8ne180100Eff
	.weak_def_can_be_hidden	__ZNSt3__125uniform_real_distributionIfEC1B8ne180100Eff
	.p2align	2
__ZNSt3__125uniform_real_distributionIfEC1B8ne180100Eff: ; @_ZNSt3__125uniform_real_distributionIfEC1B8ne180100Eff
	.cfi_startproc
; %bb.0:
	sub	sp, sp, #48
	stp	x29, x30, [sp, #32]             ; 16-byte Folded Spill
	add	x29, sp, #32
	.cfi_def_cfa w29, 16
	.cfi_offset w30, -8
	.cfi_offset w29, -16
	stur	x0, [x29, #-8]
	stur	s0, [x29, #-12]
	str	s1, [sp, #16]
	ldur	x0, [x29, #-8]
	str	x0, [sp, #8]                    ; 8-byte Folded Spill
	ldur	s0, [x29, #-12]
	ldr	s1, [sp, #16]
	bl	__ZNSt3__125uniform_real_distributionIfEC2B8ne180100Eff
	ldr	x0, [sp, #8]                    ; 8-byte Folded Reload
	ldp	x29, x30, [sp, #32]             ; 16-byte Folded Reload
	add	sp, sp, #48
	ret
	.cfi_endproc
                                        ; -- End function
	.private_extern	__ZNSt3__16vectorIfNS_9allocatorIfEEEC1Em ; -- Begin function _ZNSt3__16vectorIfNS_9allocatorIfEEEC1Em
	.globl	__ZNSt3__16vectorIfNS_9allocatorIfEEEC1Em
	.weak_def_can_be_hidden	__ZNSt3__16vectorIfNS_9allocatorIfEEEC1Em
	.p2align	2
__ZNSt3__16vectorIfNS_9allocatorIfEEEC1Em: ; @_ZNSt3__16vectorIfNS_9allocatorIfEEEC1Em
	.cfi_startproc
; %bb.0:
	sub	sp, sp, #48
	stp	x29, x30, [sp, #32]             ; 16-byte Folded Spill
	add	x29, sp, #32
	.cfi_def_cfa w29, 16
	.cfi_offset w30, -8
	.cfi_offset w29, -16
	stur	x0, [x29, #-8]
	str	x1, [sp, #16]
	ldur	x0, [x29, #-8]
	str	x0, [sp, #8]                    ; 8-byte Folded Spill
	ldr	x1, [sp, #16]
	bl	__ZNSt3__16vectorIfNS_9allocatorIfEEEC2Em
	ldr	x0, [sp, #8]                    ; 8-byte Folded Reload
	ldp	x29, x30, [sp, #32]             ; 16-byte Folded Reload
	add	sp, sp, #48
	ret
	.cfi_endproc
                                        ; -- End function
	.private_extern	__ZNSt3__16vectorIfNS_9allocatorIfEEE5beginB8ne180100Ev ; -- Begin function _ZNSt3__16vectorIfNS_9allocatorIfEEE5beginB8ne180100Ev
	.globl	__ZNSt3__16vectorIfNS_9allocatorIfEEE5beginB8ne180100Ev
	.weak_definition	__ZNSt3__16vectorIfNS_9allocatorIfEEE5beginB8ne180100Ev
	.p2align	2
__ZNSt3__16vectorIfNS_9allocatorIfEEE5beginB8ne180100Ev: ; @_ZNSt3__16vectorIfNS_9allocatorIfEEE5beginB8ne180100Ev
	.cfi_startproc
; %bb.0:
	sub	sp, sp, #32
	stp	x29, x30, [sp, #16]             ; 16-byte Folded Spill
	add	x29, sp, #16
	.cfi_def_cfa w29, 16
	.cfi_offset w30, -8
	.cfi_offset w29, -16
	str	x0, [sp]
	ldr	x0, [sp]
	ldr	x1, [x0]
	bl	__ZNSt3__16vectorIfNS_9allocatorIfEEE11__make_iterB8ne180100EPf
	str	x0, [sp, #8]
	ldr	x0, [sp, #8]
	ldp	x29, x30, [sp, #16]             ; 16-byte Folded Reload
	add	sp, sp, #32
	ret
	.cfi_endproc
                                        ; -- End function
	.private_extern	__ZNSt3__16vectorIfNS_9allocatorIfEEE3endB8ne180100Ev ; -- Begin function _ZNSt3__16vectorIfNS_9allocatorIfEEE3endB8ne180100Ev
	.globl	__ZNSt3__16vectorIfNS_9allocatorIfEEE3endB8ne180100Ev
	.weak_definition	__ZNSt3__16vectorIfNS_9allocatorIfEEE3endB8ne180100Ev
	.p2align	2
__ZNSt3__16vectorIfNS_9allocatorIfEEE3endB8ne180100Ev: ; @_ZNSt3__16vectorIfNS_9allocatorIfEEE3endB8ne180100Ev
	.cfi_startproc
; %bb.0:
	sub	sp, sp, #32
	stp	x29, x30, [sp, #16]             ; 16-byte Folded Spill
	add	x29, sp, #16
	.cfi_def_cfa w29, 16
	.cfi_offset w30, -8
	.cfi_offset w29, -16
	str	x0, [sp]
	ldr	x0, [sp]
	ldr	x1, [x0, #8]
	bl	__ZNSt3__16vectorIfNS_9allocatorIfEEE11__make_iterB8ne180100EPf
	str	x0, [sp, #8]
	ldr	x0, [sp, #8]
	ldp	x29, x30, [sp, #16]             ; 16-byte Folded Reload
	add	sp, sp, #32
	ret
	.cfi_endproc
                                        ; -- End function
	.private_extern	__ZNSt3__1neB8ne180100IPfEEbRKNS_11__wrap_iterIT_EES6_ ; -- Begin function _ZNSt3__1neB8ne180100IPfEEbRKNS_11__wrap_iterIT_EES6_
	.globl	__ZNSt3__1neB8ne180100IPfEEbRKNS_11__wrap_iterIT_EES6_
	.weak_definition	__ZNSt3__1neB8ne180100IPfEEbRKNS_11__wrap_iterIT_EES6_
	.p2align	2
__ZNSt3__1neB8ne180100IPfEEbRKNS_11__wrap_iterIT_EES6_: ; @_ZNSt3__1neB8ne180100IPfEEbRKNS_11__wrap_iterIT_EES6_
	.cfi_startproc
; %bb.0:
	sub	sp, sp, #32
	stp	x29, x30, [sp, #16]             ; 16-byte Folded Spill
	add	x29, sp, #16
	.cfi_def_cfa w29, 16
	.cfi_offset w30, -8
	.cfi_offset w29, -16
	str	x0, [sp, #8]
	str	x1, [sp]
	ldr	x0, [sp, #8]
	ldr	x1, [sp]
	bl	__ZNSt3__1eqB8ne180100IPfEEbRKNS_11__wrap_iterIT_EES6_
	eor	w8, w0, #0x1
	and	w0, w8, #0x1
	ldp	x29, x30, [sp, #16]             ; 16-byte Folded Reload
	add	sp, sp, #32
	ret
	.cfi_endproc
                                        ; -- End function
	.private_extern	__ZNKSt3__111__wrap_iterIPfEdeB8ne180100Ev ; -- Begin function _ZNKSt3__111__wrap_iterIPfEdeB8ne180100Ev
	.globl	__ZNKSt3__111__wrap_iterIPfEdeB8ne180100Ev
	.weak_definition	__ZNKSt3__111__wrap_iterIPfEdeB8ne180100Ev
	.p2align	2
__ZNKSt3__111__wrap_iterIPfEdeB8ne180100Ev: ; @_ZNKSt3__111__wrap_iterIPfEdeB8ne180100Ev
	.cfi_startproc
; %bb.0:
	sub	sp, sp, #16
	.cfi_def_cfa_offset 16
	str	x0, [sp, #8]
	ldr	x8, [sp, #8]
	ldr	x0, [x8]
	add	sp, sp, #16
	ret
	.cfi_endproc
                                        ; -- End function
	.globl	__ZNSt3__125uniform_real_distributionIfEclB8ne180100INS_23mersenne_twister_engineIjLm32ELm624ELm397ELm31ELj2567483615ELm11ELj4294967295ELm7ELj2636928640ELm15ELj4022730752ELm18ELj1812433253EEEEEfRT_ ; -- Begin function _ZNSt3__125uniform_real_distributionIfEclB8ne180100INS_23mersenne_twister_engineIjLm32ELm624ELm397ELm31ELj2567483615ELm11ELj4294967295ELm7ELj2636928640ELm15ELj4022730752ELm18ELj1812433253EEEEEfRT_
	.weak_definition	__ZNSt3__125uniform_real_distributionIfEclB8ne180100INS_23mersenne_twister_engineIjLm32ELm624ELm397ELm31ELj2567483615ELm11ELj4294967295ELm7ELj2636928640ELm15ELj4022730752ELm18ELj1812433253EEEEEfRT_
	.p2align	2
__ZNSt3__125uniform_real_distributionIfEclB8ne180100INS_23mersenne_twister_engineIjLm32ELm624ELm397ELm31ELj2567483615ELm11ELj4294967295ELm7ELj2636928640ELm15ELj4022730752ELm18ELj1812433253EEEEEfRT_: ; @_ZNSt3__125uniform_real_distributionIfEclB8ne180100INS_23mersenne_twister_engineIjLm32ELm624ELm397ELm31ELj2567483615ELm11ELj4294967295ELm7ELj2636928640ELm15ELj4022730752ELm18ELj1812433253EEEEEfRT_
	.cfi_startproc
; %bb.0:
	sub	sp, sp, #32
	stp	x29, x30, [sp, #16]             ; 16-byte Folded Spill
	add	x29, sp, #16
	.cfi_def_cfa w29, 16
	.cfi_offset w30, -8
	.cfi_offset w29, -16
	str	x0, [sp, #8]
	str	x1, [sp]
	ldr	x2, [sp, #8]
	ldr	x1, [sp]
	mov	x0, x2
	bl	__ZNSt3__125uniform_real_distributionIfEclINS_23mersenne_twister_engineIjLm32ELm624ELm397ELm31ELj2567483615ELm11ELj4294967295ELm7ELj2636928640ELm15ELj4022730752ELm18ELj1812433253EEEEEfRT_RKNS1_10param_typeE
	ldp	x29, x30, [sp, #16]             ; 16-byte Folded Reload
	add	sp, sp, #32
	ret
	.cfi_endproc
                                        ; -- End function
	.private_extern	__ZNSt3__111__wrap_iterIPfEppB8ne180100Ev ; -- Begin function _ZNSt3__111__wrap_iterIPfEppB8ne180100Ev
	.globl	__ZNSt3__111__wrap_iterIPfEppB8ne180100Ev
	.weak_definition	__ZNSt3__111__wrap_iterIPfEppB8ne180100Ev
	.p2align	2
__ZNSt3__111__wrap_iterIPfEppB8ne180100Ev: ; @_ZNSt3__111__wrap_iterIPfEppB8ne180100Ev
	.cfi_startproc
; %bb.0:
	sub	sp, sp, #16
	.cfi_def_cfa_offset 16
	str	x0, [sp, #8]
	ldr	x0, [sp, #8]
	ldr	x8, [x0]
	add	x8, x8, #4
	str	x8, [x0]
	add	sp, sp, #16
	ret
	.cfi_endproc
                                        ; -- End function
	.private_extern	__ZNSt3__16vectorIfNS_9allocatorIfEEED1B8ne180100Ev ; -- Begin function _ZNSt3__16vectorIfNS_9allocatorIfEEED1B8ne180100Ev
	.globl	__ZNSt3__16vectorIfNS_9allocatorIfEEED1B8ne180100Ev
	.weak_def_can_be_hidden	__ZNSt3__16vectorIfNS_9allocatorIfEEED1B8ne180100Ev
	.p2align	2
__ZNSt3__16vectorIfNS_9allocatorIfEEED1B8ne180100Ev: ; @_ZNSt3__16vectorIfNS_9allocatorIfEEED1B8ne180100Ev
	.cfi_startproc
; %bb.0:
	sub	sp, sp, #32
	stp	x29, x30, [sp, #16]             ; 16-byte Folded Spill
	add	x29, sp, #16
	.cfi_def_cfa w29, 16
	.cfi_offset w30, -8
	.cfi_offset w29, -16
	str	x0, [sp, #8]
	ldr	x0, [sp, #8]
	str	x0, [sp]                        ; 8-byte Folded Spill
	bl	__ZNSt3__16vectorIfNS_9allocatorIfEEED2B8ne180100Ev
	ldr	x0, [sp]                        ; 8-byte Folded Reload
	ldp	x29, x30, [sp, #16]             ; 16-byte Folded Reload
	add	sp, sp, #32
	ret
	.cfi_endproc
                                        ; -- End function
	.globl	__ZNSt3__112basic_stringIcNS_11char_traitsIcEENS_9allocatorIcEEEC1B8ne180100ILi0EEEPKc ; -- Begin function _ZNSt3__112basic_stringIcNS_11char_traitsIcEENS_9allocatorIcEEEC1B8ne180100ILi0EEEPKc
	.weak_def_can_be_hidden	__ZNSt3__112basic_stringIcNS_11char_traitsIcEENS_9allocatorIcEEEC1B8ne180100ILi0EEEPKc
	.p2align	2
__ZNSt3__112basic_stringIcNS_11char_traitsIcEENS_9allocatorIcEEEC1B8ne180100ILi0EEEPKc: ; @_ZNSt3__112basic_stringIcNS_11char_traitsIcEENS_9allocatorIcEEEC1B8ne180100ILi0EEEPKc
	.cfi_startproc
; %bb.0:
	sub	sp, sp, #48
	stp	x29, x30, [sp, #32]             ; 16-byte Folded Spill
	add	x29, sp, #32
	.cfi_def_cfa w29, 16
	.cfi_offset w30, -8
	.cfi_offset w29, -16
	stur	x0, [x29, #-8]
	str	x1, [sp, #16]
	ldur	x0, [x29, #-8]
	str	x0, [sp, #8]                    ; 8-byte Folded Spill
	ldr	x1, [sp, #16]
	bl	__ZNSt3__112basic_stringIcNS_11char_traitsIcEENS_9allocatorIcEEEC2B8ne180100ILi0EEEPKc
	ldr	x0, [sp, #8]                    ; 8-byte Folded Reload
	ldp	x29, x30, [sp, #32]             ; 16-byte Folded Reload
	add	sp, sp, #48
	ret
	.cfi_endproc
                                        ; -- End function
	.globl	__ZNSt3__112basic_stringIcNS_11char_traitsIcEENS_9allocatorIcEEEC2B8ne180100ILi0EEEPKc ; -- Begin function _ZNSt3__112basic_stringIcNS_11char_traitsIcEENS_9allocatorIcEEEC2B8ne180100ILi0EEEPKc
	.weak_def_can_be_hidden	__ZNSt3__112basic_stringIcNS_11char_traitsIcEENS_9allocatorIcEEEC2B8ne180100ILi0EEEPKc
	.p2align	2
__ZNSt3__112basic_stringIcNS_11char_traitsIcEENS_9allocatorIcEEEC2B8ne180100ILi0EEEPKc: ; @_ZNSt3__112basic_stringIcNS_11char_traitsIcEENS_9allocatorIcEEEC2B8ne180100ILi0EEEPKc
	.cfi_startproc
; %bb.0:
	sub	sp, sp, #64
	stp	x29, x30, [sp, #48]             ; 16-byte Folded Spill
	add	x29, sp, #48
	.cfi_def_cfa w29, 16
	.cfi_offset w30, -8
	.cfi_offset w29, -16
	stur	x0, [x29, #-8]
	stur	x1, [x29, #-16]
	ldur	x0, [x29, #-8]
	str	x0, [sp, #16]                   ; 8-byte Folded Spill
	sub	x1, x29, #17
	sub	x2, x29, #18
	bl	__ZNSt3__117__compressed_pairINS_12basic_stringIcNS_11char_traitsIcEENS_9allocatorIcEEE5__repES5_EC1B8ne180100INS_18__default_init_tagESA_EEOT_OT0_
	ldur	x8, [x29, #-16]
	str	x8, [sp, #8]                    ; 8-byte Folded Spill
	ldur	x0, [x29, #-16]
	bl	__ZNSt3__111char_traitsIcE6lengthB8ne180100EPKc
	ldr	x1, [sp, #8]                    ; 8-byte Folded Reload
	mov	x2, x0
	ldr	x0, [sp, #16]                   ; 8-byte Folded Reload
	bl	__ZNSt3__112basic_stringIcNS_11char_traitsIcEENS_9allocatorIcEEE6__initEPKcm
	ldr	x0, [sp, #16]                   ; 8-byte Folded Reload
	ldp	x29, x30, [sp, #48]             ; 16-byte Folded Reload
	add	sp, sp, #64
	ret
	.cfi_endproc
                                        ; -- End function
	.globl	__ZNSt3__117__compressed_pairINS_12basic_stringIcNS_11char_traitsIcEENS_9allocatorIcEEE5__repES5_EC1B8ne180100INS_18__default_init_tagESA_EEOT_OT0_ ; -- Begin function _ZNSt3__117__compressed_pairINS_12basic_stringIcNS_11char_traitsIcEENS_9allocatorIcEEE5__repES5_EC1B8ne180100INS_18__default_init_tagESA_EEOT_OT0_
	.weak_def_can_be_hidden	__ZNSt3__117__compressed_pairINS_12basic_stringIcNS_11char_traitsIcEENS_9allocatorIcEEE5__repES5_EC1B8ne180100INS_18__default_init_tagESA_EEOT_OT0_
	.p2align	2
__ZNSt3__117__compressed_pairINS_12basic_stringIcNS_11char_traitsIcEENS_9allocatorIcEEE5__repES5_EC1B8ne180100INS_18__default_init_tagESA_EEOT_OT0_: ; @_ZNSt3__117__compressed_pairINS_12basic_stringIcNS_11char_traitsIcEENS_9allocatorIcEEE5__repES5_EC1B8ne180100INS_18__default_init_tagESA_EEOT_OT0_
	.cfi_startproc
; %bb.0:
	sub	sp, sp, #48
	stp	x29, x30, [sp, #32]             ; 16-byte Folded Spill
	add	x29, sp, #32
	.cfi_def_cfa w29, 16
	.cfi_offset w30, -8
	.cfi_offset w29, -16
	stur	x0, [x29, #-8]
	str	x1, [sp, #16]
	str	x2, [sp, #8]
	ldur	x0, [x29, #-8]
	str	x0, [sp]                        ; 8-byte Folded Spill
	ldr	x1, [sp, #16]
	ldr	x2, [sp, #8]
	bl	__ZNSt3__117__compressed_pairINS_12basic_stringIcNS_11char_traitsIcEENS_9allocatorIcEEE5__repES5_EC2B8ne180100INS_18__default_init_tagESA_EEOT_OT0_
	ldr	x0, [sp]                        ; 8-byte Folded Reload
	ldp	x29, x30, [sp, #32]             ; 16-byte Folded Reload
	add	sp, sp, #48
	ret
	.cfi_endproc
                                        ; -- End function
	.private_extern	__ZNSt3__111char_traitsIcE6lengthB8ne180100EPKc ; -- Begin function _ZNSt3__111char_traitsIcE6lengthB8ne180100EPKc
	.globl	__ZNSt3__111char_traitsIcE6lengthB8ne180100EPKc
	.weak_definition	__ZNSt3__111char_traitsIcE6lengthB8ne180100EPKc
	.p2align	2
__ZNSt3__111char_traitsIcE6lengthB8ne180100EPKc: ; @_ZNSt3__111char_traitsIcE6lengthB8ne180100EPKc
Lfunc_begin2:
	.cfi_startproc
	.cfi_personality 155, ___gxx_personality_v0
	.cfi_lsda 16, Lexception2
; %bb.0:
	sub	sp, sp, #32
	stp	x29, x30, [sp, #16]             ; 16-byte Folded Spill
	add	x29, sp, #16
	.cfi_def_cfa w29, 16
	.cfi_offset w30, -8
	.cfi_offset w29, -16
	str	x0, [sp, #8]
	ldr	x0, [sp, #8]
Ltmp21:
	bl	__ZNSt3__118__constexpr_strlenB8ne180100EPKc
	str	x0, [sp]                        ; 8-byte Folded Spill
Ltmp22:
	b	LBB18_1
LBB18_1:
	ldr	x0, [sp]                        ; 8-byte Folded Reload
	ldp	x29, x30, [sp, #16]             ; 16-byte Folded Reload
	add	sp, sp, #32
	ret
LBB18_2:
Ltmp23:
	bl	___clang_call_terminate
Lfunc_end2:
	.cfi_endproc
	.section	__TEXT,__gcc_except_tab
	.p2align	2, 0x0
GCC_except_table18:
Lexception2:
	.byte	255                             ; @LPStart Encoding = omit
	.byte	155                             ; @TType Encoding = indirect pcrel sdata4
	.uleb128 Lttbase0-Lttbaseref0
Lttbaseref0:
	.byte	1                               ; Call site Encoding = uleb128
	.uleb128 Lcst_end2-Lcst_begin2
Lcst_begin2:
	.uleb128 Ltmp21-Lfunc_begin2            ; >> Call Site 1 <<
	.uleb128 Ltmp22-Ltmp21                  ;   Call between Ltmp21 and Ltmp22
	.uleb128 Ltmp23-Lfunc_begin2            ;     jumps to Ltmp23
	.byte	1                               ;   On action: 1
Lcst_end2:
	.byte	1                               ; >> Action Record 1 <<
                                        ;   Catch TypeInfo 1
	.byte	0                               ;   No further actions
	.p2align	2, 0x0
                                        ; >> Catch TypeInfos <<
	.long	0                               ; TypeInfo 1
Lttbase0:
	.p2align	2, 0x0
                                        ; -- End function
	.section	__TEXT,__text,regular,pure_instructions
	.globl	__ZNSt3__117__compressed_pairINS_12basic_stringIcNS_11char_traitsIcEENS_9allocatorIcEEE5__repES5_EC2B8ne180100INS_18__default_init_tagESA_EEOT_OT0_ ; -- Begin function _ZNSt3__117__compressed_pairINS_12basic_stringIcNS_11char_traitsIcEENS_9allocatorIcEEE5__repES5_EC2B8ne180100INS_18__default_init_tagESA_EEOT_OT0_
	.weak_def_can_be_hidden	__ZNSt3__117__compressed_pairINS_12basic_stringIcNS_11char_traitsIcEENS_9allocatorIcEEE5__repES5_EC2B8ne180100INS_18__default_init_tagESA_EEOT_OT0_
	.p2align	2
__ZNSt3__117__compressed_pairINS_12basic_stringIcNS_11char_traitsIcEENS_9allocatorIcEEE5__repES5_EC2B8ne180100INS_18__default_init_tagESA_EEOT_OT0_: ; @_ZNSt3__117__compressed_pairINS_12basic_stringIcNS_11char_traitsIcEENS_9allocatorIcEEE5__repES5_EC2B8ne180100INS_18__default_init_tagESA_EEOT_OT0_
	.cfi_startproc
; %bb.0:
	sub	sp, sp, #64
	stp	x29, x30, [sp, #48]             ; 16-byte Folded Spill
	add	x29, sp, #48
	.cfi_def_cfa w29, 16
	.cfi_offset w30, -8
	.cfi_offset w29, -16
	stur	x0, [x29, #-8]
	stur	x1, [x29, #-16]
	str	x2, [sp, #24]
	ldur	x0, [x29, #-8]
	str	x0, [sp, #8]                    ; 8-byte Folded Spill
	bl	__ZNSt3__122__compressed_pair_elemINS_12basic_stringIcNS_11char_traitsIcEENS_9allocatorIcEEE5__repELi0ELb0EEC2B8ne180100ENS_18__default_init_tagE
	ldr	x0, [sp, #8]                    ; 8-byte Folded Reload
	bl	__ZNSt3__122__compressed_pair_elemINS_9allocatorIcEELi1ELb1EEC2B8ne180100ENS_18__default_init_tagE
	ldr	x0, [sp, #8]                    ; 8-byte Folded Reload
	ldp	x29, x30, [sp, #48]             ; 16-byte Folded Reload
	add	sp, sp, #64
	ret
	.cfi_endproc
                                        ; -- End function
	.private_extern	__ZNSt3__122__compressed_pair_elemINS_12basic_stringIcNS_11char_traitsIcEENS_9allocatorIcEEE5__repELi0ELb0EEC2B8ne180100ENS_18__default_init_tagE ; -- Begin function _ZNSt3__122__compressed_pair_elemINS_12basic_stringIcNS_11char_traitsIcEENS_9allocatorIcEEE5__repELi0ELb0EEC2B8ne180100ENS_18__default_init_tagE
	.globl	__ZNSt3__122__compressed_pair_elemINS_12basic_stringIcNS_11char_traitsIcEENS_9allocatorIcEEE5__repELi0ELb0EEC2B8ne180100ENS_18__default_init_tagE
	.weak_def_can_be_hidden	__ZNSt3__122__compressed_pair_elemINS_12basic_stringIcNS_11char_traitsIcEENS_9allocatorIcEEE5__repELi0ELb0EEC2B8ne180100ENS_18__default_init_tagE
	.p2align	2
__ZNSt3__122__compressed_pair_elemINS_12basic_stringIcNS_11char_traitsIcEENS_9allocatorIcEEE5__repELi0ELb0EEC2B8ne180100ENS_18__default_init_tagE: ; @_ZNSt3__122__compressed_pair_elemINS_12basic_stringIcNS_11char_traitsIcEENS_9allocatorIcEEE5__repELi0ELb0EEC2B8ne180100ENS_18__default_init_tagE
	.cfi_startproc
; %bb.0:
	sub	sp, sp, #16
	.cfi_def_cfa_offset 16
	str	x0, [sp]
	ldr	x0, [sp]
	add	sp, sp, #16
	ret
	.cfi_endproc
                                        ; -- End function
	.private_extern	__ZNSt3__122__compressed_pair_elemINS_9allocatorIcEELi1ELb1EEC2B8ne180100ENS_18__default_init_tagE ; -- Begin function _ZNSt3__122__compressed_pair_elemINS_9allocatorIcEELi1ELb1EEC2B8ne180100ENS_18__default_init_tagE
	.globl	__ZNSt3__122__compressed_pair_elemINS_9allocatorIcEELi1ELb1EEC2B8ne180100ENS_18__default_init_tagE
	.weak_def_can_be_hidden	__ZNSt3__122__compressed_pair_elemINS_9allocatorIcEELi1ELb1EEC2B8ne180100ENS_18__default_init_tagE
	.p2align	2
__ZNSt3__122__compressed_pair_elemINS_9allocatorIcEELi1ELb1EEC2B8ne180100ENS_18__default_init_tagE: ; @_ZNSt3__122__compressed_pair_elemINS_9allocatorIcEELi1ELb1EEC2B8ne180100ENS_18__default_init_tagE
	.cfi_startproc
; %bb.0:
	sub	sp, sp, #48
	stp	x29, x30, [sp, #32]             ; 16-byte Folded Spill
	add	x29, sp, #32
	.cfi_def_cfa w29, 16
	.cfi_offset w30, -8
	.cfi_offset w29, -16
	str	x0, [sp, #16]
	ldr	x0, [sp, #16]
	str	x0, [sp, #8]                    ; 8-byte Folded Spill
	bl	__ZNSt3__19allocatorIcEC2B8ne180100Ev
	ldr	x0, [sp, #8]                    ; 8-byte Folded Reload
	ldp	x29, x30, [sp, #32]             ; 16-byte Folded Reload
	add	sp, sp, #48
	ret
	.cfi_endproc
                                        ; -- End function
	.private_extern	__ZNSt3__19allocatorIcEC2B8ne180100Ev ; -- Begin function _ZNSt3__19allocatorIcEC2B8ne180100Ev
	.globl	__ZNSt3__19allocatorIcEC2B8ne180100Ev
	.weak_def_can_be_hidden	__ZNSt3__19allocatorIcEC2B8ne180100Ev
	.p2align	2
__ZNSt3__19allocatorIcEC2B8ne180100Ev:  ; @_ZNSt3__19allocatorIcEC2B8ne180100Ev
	.cfi_startproc
; %bb.0:
	sub	sp, sp, #32
	stp	x29, x30, [sp, #16]             ; 16-byte Folded Spill
	add	x29, sp, #16
	.cfi_def_cfa w29, 16
	.cfi_offset w30, -8
	.cfi_offset w29, -16
	str	x0, [sp, #8]
	ldr	x0, [sp, #8]
	str	x0, [sp]                        ; 8-byte Folded Spill
	bl	__ZNSt3__116__non_trivial_ifILb1ENS_9allocatorIcEEEC2B8ne180100Ev
	ldr	x0, [sp]                        ; 8-byte Folded Reload
	ldp	x29, x30, [sp, #16]             ; 16-byte Folded Reload
	add	sp, sp, #32
	ret
	.cfi_endproc
                                        ; -- End function
	.private_extern	__ZNSt3__116__non_trivial_ifILb1ENS_9allocatorIcEEEC2B8ne180100Ev ; -- Begin function _ZNSt3__116__non_trivial_ifILb1ENS_9allocatorIcEEEC2B8ne180100Ev
	.globl	__ZNSt3__116__non_trivial_ifILb1ENS_9allocatorIcEEEC2B8ne180100Ev
	.weak_def_can_be_hidden	__ZNSt3__116__non_trivial_ifILb1ENS_9allocatorIcEEEC2B8ne180100Ev
	.p2align	2
__ZNSt3__116__non_trivial_ifILb1ENS_9allocatorIcEEEC2B8ne180100Ev: ; @_ZNSt3__116__non_trivial_ifILb1ENS_9allocatorIcEEEC2B8ne180100Ev
	.cfi_startproc
; %bb.0:
	sub	sp, sp, #16
	.cfi_def_cfa_offset 16
	str	x0, [sp, #8]
	ldr	x0, [sp, #8]
	add	sp, sp, #16
	ret
	.cfi_endproc
                                        ; -- End function
	.private_extern	__ZNSt3__118__constexpr_strlenB8ne180100EPKc ; -- Begin function _ZNSt3__118__constexpr_strlenB8ne180100EPKc
	.globl	__ZNSt3__118__constexpr_strlenB8ne180100EPKc
	.weak_definition	__ZNSt3__118__constexpr_strlenB8ne180100EPKc
	.p2align	2
__ZNSt3__118__constexpr_strlenB8ne180100EPKc: ; @_ZNSt3__118__constexpr_strlenB8ne180100EPKc
	.cfi_startproc
; %bb.0:
	sub	sp, sp, #32
	stp	x29, x30, [sp, #16]             ; 16-byte Folded Spill
	add	x29, sp, #16
	.cfi_def_cfa w29, 16
	.cfi_offset w30, -8
	.cfi_offset w29, -16
	str	x0, [sp, #8]
	ldr	x0, [sp, #8]
	bl	_strlen
	ldp	x29, x30, [sp, #16]             ; 16-byte Folded Reload
	add	sp, sp, #32
	ret
	.cfi_endproc
                                        ; -- End function
	.private_extern	___clang_call_terminate ; -- Begin function __clang_call_terminate
	.globl	___clang_call_terminate
	.weak_definition	___clang_call_terminate
	.p2align	2
___clang_call_terminate:                ; @__clang_call_terminate
	.cfi_startproc
; %bb.0:
	stp	x29, x30, [sp, #-16]!           ; 16-byte Folded Spill
	mov	x29, sp
	.cfi_def_cfa w29, 16
	.cfi_offset w30, -8
	.cfi_offset w29, -16
	bl	___cxa_begin_catch
	bl	__ZSt9terminatev
	.cfi_endproc
                                        ; -- End function
	.private_extern	__ZNSt3__1eqB8ne180100IPfEEbRKNS_11__wrap_iterIT_EES6_ ; -- Begin function _ZNSt3__1eqB8ne180100IPfEEbRKNS_11__wrap_iterIT_EES6_
	.globl	__ZNSt3__1eqB8ne180100IPfEEbRKNS_11__wrap_iterIT_EES6_
	.weak_definition	__ZNSt3__1eqB8ne180100IPfEEbRKNS_11__wrap_iterIT_EES6_
	.p2align	2
__ZNSt3__1eqB8ne180100IPfEEbRKNS_11__wrap_iterIT_EES6_: ; @_ZNSt3__1eqB8ne180100IPfEEbRKNS_11__wrap_iterIT_EES6_
	.cfi_startproc
; %bb.0:
	sub	sp, sp, #48
	stp	x29, x30, [sp, #32]             ; 16-byte Folded Spill
	add	x29, sp, #32
	.cfi_def_cfa w29, 16
	.cfi_offset w30, -8
	.cfi_offset w29, -16
	stur	x0, [x29, #-8]
	str	x1, [sp, #16]
	ldur	x0, [x29, #-8]
	bl	__ZNKSt3__111__wrap_iterIPfE4baseB8ne180100Ev
	str	x0, [sp, #8]                    ; 8-byte Folded Spill
	ldr	x0, [sp, #16]
	bl	__ZNKSt3__111__wrap_iterIPfE4baseB8ne180100Ev
	mov	x8, x0
	ldr	x0, [sp, #8]                    ; 8-byte Folded Reload
	subs	x8, x0, x8
	cset	w8, eq
	and	w0, w8, #0x1
	ldp	x29, x30, [sp, #32]             ; 16-byte Folded Reload
	add	sp, sp, #48
	ret
	.cfi_endproc
                                        ; -- End function
	.private_extern	__ZNKSt3__111__wrap_iterIPfE4baseB8ne180100Ev ; -- Begin function _ZNKSt3__111__wrap_iterIPfE4baseB8ne180100Ev
	.globl	__ZNKSt3__111__wrap_iterIPfE4baseB8ne180100Ev
	.weak_definition	__ZNKSt3__111__wrap_iterIPfE4baseB8ne180100Ev
	.p2align	2
__ZNKSt3__111__wrap_iterIPfE4baseB8ne180100Ev: ; @_ZNKSt3__111__wrap_iterIPfE4baseB8ne180100Ev
	.cfi_startproc
; %bb.0:
	sub	sp, sp, #16
	.cfi_def_cfa_offset 16
	str	x0, [sp, #8]
	ldr	x8, [sp, #8]
	ldr	x0, [x8]
	add	sp, sp, #16
	ret
	.cfi_endproc
                                        ; -- End function
	.private_extern	__ZNSt3__123mersenne_twister_engineIjLm32ELm624ELm397ELm31ELj2567483615ELm11ELj4294967295ELm7ELj2636928640ELm15ELj4022730752ELm18ELj1812433253EEC2B8ne180100Ej ; -- Begin function _ZNSt3__123mersenne_twister_engineIjLm32ELm624ELm397ELm31ELj2567483615ELm11ELj4294967295ELm7ELj2636928640ELm15ELj4022730752ELm18ELj1812433253EEC2B8ne180100Ej
	.globl	__ZNSt3__123mersenne_twister_engineIjLm32ELm624ELm397ELm31ELj2567483615ELm11ELj4294967295ELm7ELj2636928640ELm15ELj4022730752ELm18ELj1812433253EEC2B8ne180100Ej
	.weak_def_can_be_hidden	__ZNSt3__123mersenne_twister_engineIjLm32ELm624ELm397ELm31ELj2567483615ELm11ELj4294967295ELm7ELj2636928640ELm15ELj4022730752ELm18ELj1812433253EEC2B8ne180100Ej
	.p2align	2
__ZNSt3__123mersenne_twister_engineIjLm32ELm624ELm397ELm31ELj2567483615ELm11ELj4294967295ELm7ELj2636928640ELm15ELj4022730752ELm18ELj1812433253EEC2B8ne180100Ej: ; @_ZNSt3__123mersenne_twister_engineIjLm32ELm624ELm397ELm31ELj2567483615ELm11ELj4294967295ELm7ELj2636928640ELm15ELj4022730752ELm18ELj1812433253EEC2B8ne180100Ej
	.cfi_startproc
; %bb.0:
	sub	sp, sp, #48
	stp	x29, x30, [sp, #32]             ; 16-byte Folded Spill
	add	x29, sp, #32
	.cfi_def_cfa w29, 16
	.cfi_offset w30, -8
	.cfi_offset w29, -16
	stur	x0, [x29, #-8]
	stur	w1, [x29, #-12]
	ldur	x0, [x29, #-8]
	str	x0, [sp, #8]                    ; 8-byte Folded Spill
	ldur	w1, [x29, #-12]
	bl	__ZNSt3__123mersenne_twister_engineIjLm32ELm624ELm397ELm31ELj2567483615ELm11ELj4294967295ELm7ELj2636928640ELm15ELj4022730752ELm18ELj1812433253EE4seedEj
	ldr	x0, [sp, #8]                    ; 8-byte Folded Reload
	ldp	x29, x30, [sp, #32]             ; 16-byte Folded Reload
	add	sp, sp, #48
	ret
	.cfi_endproc
                                        ; -- End function
	.private_extern	__ZNSt3__123mersenne_twister_engineIjLm32ELm624ELm397ELm31ELj2567483615ELm11ELj4294967295ELm7ELj2636928640ELm15ELj4022730752ELm18ELj1812433253EE4seedEj ; -- Begin function _ZNSt3__123mersenne_twister_engineIjLm32ELm624ELm397ELm31ELj2567483615ELm11ELj4294967295ELm7ELj2636928640ELm15ELj4022730752ELm18ELj1812433253EE4seedEj
	.globl	__ZNSt3__123mersenne_twister_engineIjLm32ELm624ELm397ELm31ELj2567483615ELm11ELj4294967295ELm7ELj2636928640ELm15ELj4022730752ELm18ELj1812433253EE4seedEj
	.weak_definition	__ZNSt3__123mersenne_twister_engineIjLm32ELm624ELm397ELm31ELj2567483615ELm11ELj4294967295ELm7ELj2636928640ELm15ELj4022730752ELm18ELj1812433253EE4seedEj
	.p2align	2
__ZNSt3__123mersenne_twister_engineIjLm32ELm624ELm397ELm31ELj2567483615ELm11ELj4294967295ELm7ELj2636928640ELm15ELj4022730752ELm18ELj1812433253EE4seedEj: ; @_ZNSt3__123mersenne_twister_engineIjLm32ELm624ELm397ELm31ELj2567483615ELm11ELj4294967295ELm7ELj2636928640ELm15ELj4022730752ELm18ELj1812433253EE4seedEj
	.cfi_startproc
; %bb.0:
	sub	sp, sp, #64
	stp	x29, x30, [sp, #48]             ; 16-byte Folded Spill
	add	x29, sp, #48
	.cfi_def_cfa w29, 16
	.cfi_offset w30, -8
	.cfi_offset w29, -16
	stur	x0, [x29, #-8]
	stur	w1, [x29, #-12]
	ldur	x9, [x29, #-8]
	str	x9, [sp, #16]                   ; 8-byte Folded Spill
	ldur	w8, [x29, #-12]
	mov	w10, #-1                        ; =0xffffffff
	and	w8, w8, w10
	str	w8, [x9]
	mov	x8, #1                          ; =0x1
	str	x8, [sp, #24]
	b	LBB29_1
LBB29_1:                                ; =>This Inner Loop Header: Depth=1
	ldr	x8, [sp, #24]
	subs	x8, x8, #624
	cset	w8, hs
	tbnz	w8, #0, LBB29_4
	b	LBB29_2
LBB29_2:                                ;   in Loop: Header=BB29_1 Depth=1
	ldr	x8, [sp, #16]                   ; 8-byte Folded Reload
	ldr	x9, [sp, #24]
	subs	x9, x9, #1
	ldr	w9, [x8, x9, lsl #2]
	str	w9, [sp, #12]                   ; 4-byte Folded Spill
	ldr	x9, [sp, #24]
	subs	x9, x9, #1
	ldr	w0, [x8, x9, lsl #2]
	bl	__ZNSt3__123mersenne_twister_engineIjLm32ELm624ELm397ELm31ELj2567483615ELm11ELj4294967295ELm7ELj2636928640ELm15ELj4022730752ELm18ELj1812433253EE8__rshiftB8ne180100ILm30ELi0EEEjj
	ldr	w8, [sp, #12]                   ; 4-byte Folded Reload
	ldr	x9, [sp, #16]                   ; 8-byte Folded Reload
	eor	w10, w8, w0
	mov	w8, #35173                      ; =0x8965
	movk	w8, #27655, lsl #16
	mul	w8, w8, w10
	mov	w8, w8
                                        ; kill: def $x8 killed $w8
	ldr	x10, [sp, #24]
	add	x8, x8, x10
	and	x8, x8, #0xffffffff
	ldr	x10, [sp, #24]
                                        ; kill: def $w8 killed $w8 killed $x8
	str	w8, [x9, x10, lsl #2]
	b	LBB29_3
LBB29_3:                                ;   in Loop: Header=BB29_1 Depth=1
	ldr	x8, [sp, #24]
	add	x8, x8, #1
	str	x8, [sp, #24]
	b	LBB29_1
LBB29_4:
	ldr	x8, [sp, #16]                   ; 8-byte Folded Reload
	str	xzr, [x8, #2496]
	ldp	x29, x30, [sp, #48]             ; 16-byte Folded Reload
	add	sp, sp, #64
	ret
	.cfi_endproc
                                        ; -- End function
	.globl	__ZNSt3__123mersenne_twister_engineIjLm32ELm624ELm397ELm31ELj2567483615ELm11ELj4294967295ELm7ELj2636928640ELm15ELj4022730752ELm18ELj1812433253EE8__rshiftB8ne180100ILm30ELi0EEEjj ; -- Begin function _ZNSt3__123mersenne_twister_engineIjLm32ELm624ELm397ELm31ELj2567483615ELm11ELj4294967295ELm7ELj2636928640ELm15ELj4022730752ELm18ELj1812433253EE8__rshiftB8ne180100ILm30ELi0EEEjj
	.weak_definition	__ZNSt3__123mersenne_twister_engineIjLm32ELm624ELm397ELm31ELj2567483615ELm11ELj4294967295ELm7ELj2636928640ELm15ELj4022730752ELm18ELj1812433253EE8__rshiftB8ne180100ILm30ELi0EEEjj
	.p2align	2
__ZNSt3__123mersenne_twister_engineIjLm32ELm624ELm397ELm31ELj2567483615ELm11ELj4294967295ELm7ELj2636928640ELm15ELj4022730752ELm18ELj1812433253EE8__rshiftB8ne180100ILm30ELi0EEEjj: ; @_ZNSt3__123mersenne_twister_engineIjLm32ELm624ELm397ELm31ELj2567483615ELm11ELj4294967295ELm7ELj2636928640ELm15ELj4022730752ELm18ELj1812433253EE8__rshiftB8ne180100ILm30ELi0EEEjj
	.cfi_startproc
; %bb.0:
	sub	sp, sp, #16
	.cfi_def_cfa_offset 16
	str	w0, [sp, #12]
	ldr	w8, [sp, #12]
	lsr	w0, w8, #30
	add	sp, sp, #16
	ret
	.cfi_endproc
                                        ; -- End function
	.private_extern	__ZNSt3__125uniform_real_distributionIfEC2B8ne180100Eff ; -- Begin function _ZNSt3__125uniform_real_distributionIfEC2B8ne180100Eff
	.globl	__ZNSt3__125uniform_real_distributionIfEC2B8ne180100Eff
	.weak_def_can_be_hidden	__ZNSt3__125uniform_real_distributionIfEC2B8ne180100Eff
	.p2align	2
__ZNSt3__125uniform_real_distributionIfEC2B8ne180100Eff: ; @_ZNSt3__125uniform_real_distributionIfEC2B8ne180100Eff
	.cfi_startproc
; %bb.0:
	sub	sp, sp, #48
	stp	x29, x30, [sp, #32]             ; 16-byte Folded Spill
	add	x29, sp, #32
	.cfi_def_cfa w29, 16
	.cfi_offset w30, -8
	.cfi_offset w29, -16
	stur	x0, [x29, #-8]
	stur	s0, [x29, #-12]
	str	s1, [sp, #16]
	ldur	x0, [x29, #-8]
	str	x0, [sp, #8]                    ; 8-byte Folded Spill
	ldur	s0, [x29, #-12]
	ldr	s1, [sp, #16]
	bl	__ZNSt3__125uniform_real_distributionIfE10param_typeC1B8ne180100Eff
	ldr	x0, [sp, #8]                    ; 8-byte Folded Reload
	ldp	x29, x30, [sp, #32]             ; 16-byte Folded Reload
	add	sp, sp, #48
	ret
	.cfi_endproc
                                        ; -- End function
	.private_extern	__ZNSt3__125uniform_real_distributionIfE10param_typeC1B8ne180100Eff ; -- Begin function _ZNSt3__125uniform_real_distributionIfE10param_typeC1B8ne180100Eff
	.globl	__ZNSt3__125uniform_real_distributionIfE10param_typeC1B8ne180100Eff
	.weak_def_can_be_hidden	__ZNSt3__125uniform_real_distributionIfE10param_typeC1B8ne180100Eff
	.p2align	2
__ZNSt3__125uniform_real_distributionIfE10param_typeC1B8ne180100Eff: ; @_ZNSt3__125uniform_real_distributionIfE10param_typeC1B8ne180100Eff
	.cfi_startproc
; %bb.0:
	sub	sp, sp, #48
	stp	x29, x30, [sp, #32]             ; 16-byte Folded Spill
	add	x29, sp, #32
	.cfi_def_cfa w29, 16
	.cfi_offset w30, -8
	.cfi_offset w29, -16
	stur	x0, [x29, #-8]
	stur	s0, [x29, #-12]
	str	s1, [sp, #16]
	ldur	x0, [x29, #-8]
	str	x0, [sp, #8]                    ; 8-byte Folded Spill
	ldur	s0, [x29, #-12]
	ldr	s1, [sp, #16]
	bl	__ZNSt3__125uniform_real_distributionIfE10param_typeC2B8ne180100Eff
	ldr	x0, [sp, #8]                    ; 8-byte Folded Reload
	ldp	x29, x30, [sp, #32]             ; 16-byte Folded Reload
	add	sp, sp, #48
	ret
	.cfi_endproc
                                        ; -- End function
	.private_extern	__ZNSt3__125uniform_real_distributionIfE10param_typeC2B8ne180100Eff ; -- Begin function _ZNSt3__125uniform_real_distributionIfE10param_typeC2B8ne180100Eff
	.globl	__ZNSt3__125uniform_real_distributionIfE10param_typeC2B8ne180100Eff
	.weak_def_can_be_hidden	__ZNSt3__125uniform_real_distributionIfE10param_typeC2B8ne180100Eff
	.p2align	2
__ZNSt3__125uniform_real_distributionIfE10param_typeC2B8ne180100Eff: ; @_ZNSt3__125uniform_real_distributionIfE10param_typeC2B8ne180100Eff
	.cfi_startproc
; %bb.0:
	sub	sp, sp, #16
	.cfi_def_cfa_offset 16
	str	x0, [sp, #8]
	str	s0, [sp, #4]
	str	s1, [sp]
	ldr	x0, [sp, #8]
	ldr	s0, [sp, #4]
	str	s0, [x0]
	ldr	s0, [sp]
	str	s0, [x0, #4]
	add	sp, sp, #16
	ret
	.cfi_endproc
                                        ; -- End function
	.private_extern	__ZNSt3__16vectorIfNS_9allocatorIfEEEC2Em ; -- Begin function _ZNSt3__16vectorIfNS_9allocatorIfEEEC2Em
	.globl	__ZNSt3__16vectorIfNS_9allocatorIfEEEC2Em
	.weak_def_can_be_hidden	__ZNSt3__16vectorIfNS_9allocatorIfEEEC2Em
	.p2align	2
__ZNSt3__16vectorIfNS_9allocatorIfEEEC2Em: ; @_ZNSt3__16vectorIfNS_9allocatorIfEEEC2Em
Lfunc_begin3:
	.cfi_startproc
	.cfi_personality 155, ___gxx_personality_v0
	.cfi_lsda 16, Lexception3
; %bb.0:
	sub	sp, sp, #112
	stp	x29, x30, [sp, #96]             ; 16-byte Folded Spill
	add	x29, sp, #96
	.cfi_def_cfa w29, 16
	.cfi_offset w30, -8
	.cfi_offset w29, -16
	stur	x0, [x29, #-16]
	stur	x1, [x29, #-24]
	ldur	x8, [x29, #-16]
	str	x8, [sp, #8]                    ; 8-byte Folded Spill
	mov	x9, x8
	stur	x9, [x29, #-8]
                                        ; kill: def $x9 killed $xzr
	str	xzr, [x8]
	str	xzr, [x8, #8]
	sub	x1, x29, #32
	stur	xzr, [x29, #-32]
	add	x0, x8, #16
	sub	x2, x29, #33
	bl	__ZNSt3__117__compressed_pairIPfNS_9allocatorIfEEEC1B8ne180100IDnNS_18__default_init_tagEEEOT_OT0_
	ldr	x1, [sp, #8]                    ; 8-byte Folded Reload
	add	x0, sp, #32
	bl	__ZNSt3__16vectorIfNS_9allocatorIfEEE16__destroy_vectorC1B8ne180100ERS3_
	ldr	x0, [sp, #32]
	add	x8, sp, #40
	bl	__ZNSt3__122__make_exception_guardB8ne180100INS_6vectorIfNS_9allocatorIfEEE16__destroy_vectorEEENS_28__exception_guard_exceptionsIT_EES7_
	ldur	x8, [x29, #-24]
	subs	x8, x8, #0
	cset	w8, ls
	tbnz	w8, #0, LBB34_5
	b	LBB34_1
LBB34_1:
	ldr	x0, [sp, #8]                    ; 8-byte Folded Reload
	ldur	x1, [x29, #-24]
Ltmp29:
	bl	__ZNSt3__16vectorIfNS_9allocatorIfEEE11__vallocateB8ne180100Em
Ltmp30:
	b	LBB34_2
LBB34_2:
	ldr	x0, [sp, #8]                    ; 8-byte Folded Reload
	ldur	x1, [x29, #-24]
Ltmp31:
	bl	__ZNSt3__16vectorIfNS_9allocatorIfEEE18__construct_at_endEm
Ltmp32:
	b	LBB34_3
LBB34_3:
	b	LBB34_5
LBB34_4:
Ltmp33:
	str	x0, [sp, #24]
	mov	x8, x1
	str	w8, [sp, #20]
	add	x0, sp, #40
	bl	__ZNSt3__128__exception_guard_exceptionsINS_6vectorIfNS_9allocatorIfEEE16__destroy_vectorEED1B8ne180100Ev
	b	LBB34_6
LBB34_5:
	add	x0, sp, #40
	str	x0, [sp]                        ; 8-byte Folded Spill
	bl	__ZNSt3__128__exception_guard_exceptionsINS_6vectorIfNS_9allocatorIfEEE16__destroy_vectorEE10__completeB8ne180100Ev
	ldr	x0, [sp]                        ; 8-byte Folded Reload
	bl	__ZNSt3__128__exception_guard_exceptionsINS_6vectorIfNS_9allocatorIfEEE16__destroy_vectorEED1B8ne180100Ev
	ldur	x0, [x29, #-8]
	ldp	x29, x30, [sp, #96]             ; 16-byte Folded Reload
	add	sp, sp, #112
	ret
LBB34_6:
	ldr	x0, [sp, #24]
	bl	__Unwind_Resume
Lfunc_end3:
	.cfi_endproc
	.section	__TEXT,__gcc_except_tab
	.p2align	2, 0x0
GCC_except_table34:
Lexception3:
	.byte	255                             ; @LPStart Encoding = omit
	.byte	255                             ; @TType Encoding = omit
	.byte	1                               ; Call site Encoding = uleb128
	.uleb128 Lcst_end3-Lcst_begin3
Lcst_begin3:
	.uleb128 Lfunc_begin3-Lfunc_begin3      ; >> Call Site 1 <<
	.uleb128 Ltmp29-Lfunc_begin3            ;   Call between Lfunc_begin3 and Ltmp29
	.byte	0                               ;     has no landing pad
	.byte	0                               ;   On action: cleanup
	.uleb128 Ltmp29-Lfunc_begin3            ; >> Call Site 2 <<
	.uleb128 Ltmp32-Ltmp29                  ;   Call between Ltmp29 and Ltmp32
	.uleb128 Ltmp33-Lfunc_begin3            ;     jumps to Ltmp33
	.byte	0                               ;   On action: cleanup
	.uleb128 Ltmp32-Lfunc_begin3            ; >> Call Site 3 <<
	.uleb128 Lfunc_end3-Ltmp32              ;   Call between Ltmp32 and Lfunc_end3
	.byte	0                               ;     has no landing pad
	.byte	0                               ;   On action: cleanup
Lcst_end3:
	.p2align	2, 0x0
                                        ; -- End function
	.section	__TEXT,__text,regular,pure_instructions
	.globl	__ZNSt3__117__compressed_pairIPfNS_9allocatorIfEEEC1B8ne180100IDnNS_18__default_init_tagEEEOT_OT0_ ; -- Begin function _ZNSt3__117__compressed_pairIPfNS_9allocatorIfEEEC1B8ne180100IDnNS_18__default_init_tagEEEOT_OT0_
	.weak_def_can_be_hidden	__ZNSt3__117__compressed_pairIPfNS_9allocatorIfEEEC1B8ne180100IDnNS_18__default_init_tagEEEOT_OT0_
	.p2align	2
__ZNSt3__117__compressed_pairIPfNS_9allocatorIfEEEC1B8ne180100IDnNS_18__default_init_tagEEEOT_OT0_: ; @_ZNSt3__117__compressed_pairIPfNS_9allocatorIfEEEC1B8ne180100IDnNS_18__default_init_tagEEEOT_OT0_
	.cfi_startproc
; %bb.0:
	sub	sp, sp, #48
	stp	x29, x30, [sp, #32]             ; 16-byte Folded Spill
	add	x29, sp, #32
	.cfi_def_cfa w29, 16
	.cfi_offset w30, -8
	.cfi_offset w29, -16
	stur	x0, [x29, #-8]
	str	x1, [sp, #16]
	str	x2, [sp, #8]
	ldur	x0, [x29, #-8]
	str	x0, [sp]                        ; 8-byte Folded Spill
	ldr	x1, [sp, #16]
	ldr	x2, [sp, #8]
	bl	__ZNSt3__117__compressed_pairIPfNS_9allocatorIfEEEC2B8ne180100IDnNS_18__default_init_tagEEEOT_OT0_
	ldr	x0, [sp]                        ; 8-byte Folded Reload
	ldp	x29, x30, [sp, #32]             ; 16-byte Folded Reload
	add	sp, sp, #48
	ret
	.cfi_endproc
                                        ; -- End function
	.private_extern	__ZNSt3__122__make_exception_guardB8ne180100INS_6vectorIfNS_9allocatorIfEEE16__destroy_vectorEEENS_28__exception_guard_exceptionsIT_EES7_ ; -- Begin function _ZNSt3__122__make_exception_guardB8ne180100INS_6vectorIfNS_9allocatorIfEEE16__destroy_vectorEEENS_28__exception_guard_exceptionsIT_EES7_
	.globl	__ZNSt3__122__make_exception_guardB8ne180100INS_6vectorIfNS_9allocatorIfEEE16__destroy_vectorEEENS_28__exception_guard_exceptionsIT_EES7_
	.weak_definition	__ZNSt3__122__make_exception_guardB8ne180100INS_6vectorIfNS_9allocatorIfEEE16__destroy_vectorEEENS_28__exception_guard_exceptionsIT_EES7_
	.p2align	2
__ZNSt3__122__make_exception_guardB8ne180100INS_6vectorIfNS_9allocatorIfEEE16__destroy_vectorEEENS_28__exception_guard_exceptionsIT_EES7_: ; @_ZNSt3__122__make_exception_guardB8ne180100INS_6vectorIfNS_9allocatorIfEEE16__destroy_vectorEEENS_28__exception_guard_exceptionsIT_EES7_
	.cfi_startproc
; %bb.0:
	sub	sp, sp, #48
	stp	x29, x30, [sp, #32]             ; 16-byte Folded Spill
	add	x29, sp, #32
	.cfi_def_cfa w29, 16
	.cfi_offset w30, -8
	.cfi_offset w29, -16
	str	x8, [sp]                        ; 8-byte Folded Spill
	mov	x8, x0
	ldr	x0, [sp]                        ; 8-byte Folded Reload
	mov	x9, x0
	stur	x9, [x29, #-8]
	str	x8, [sp, #16]
	ldr	x8, [sp, #16]
	str	x8, [sp, #8]
	ldr	x1, [sp, #8]
	bl	__ZNSt3__128__exception_guard_exceptionsINS_6vectorIfNS_9allocatorIfEEE16__destroy_vectorEEC1B8ne180100ES5_
	ldp	x29, x30, [sp, #32]             ; 16-byte Folded Reload
	add	sp, sp, #48
	ret
	.cfi_endproc
                                        ; -- End function
	.private_extern	__ZNSt3__16vectorIfNS_9allocatorIfEEE16__destroy_vectorC1B8ne180100ERS3_ ; -- Begin function _ZNSt3__16vectorIfNS_9allocatorIfEEE16__destroy_vectorC1B8ne180100ERS3_
	.globl	__ZNSt3__16vectorIfNS_9allocatorIfEEE16__destroy_vectorC1B8ne180100ERS3_
	.weak_def_can_be_hidden	__ZNSt3__16vectorIfNS_9allocatorIfEEE16__destroy_vectorC1B8ne180100ERS3_
	.p2align	2
__ZNSt3__16vectorIfNS_9allocatorIfEEE16__destroy_vectorC1B8ne180100ERS3_: ; @_ZNSt3__16vectorIfNS_9allocatorIfEEE16__destroy_vectorC1B8ne180100ERS3_
	.cfi_startproc
; %bb.0:
	sub	sp, sp, #48
	stp	x29, x30, [sp, #32]             ; 16-byte Folded Spill
	add	x29, sp, #32
	.cfi_def_cfa w29, 16
	.cfi_offset w30, -8
	.cfi_offset w29, -16
	stur	x0, [x29, #-8]
	str	x1, [sp, #16]
	ldur	x0, [x29, #-8]
	str	x0, [sp, #8]                    ; 8-byte Folded Spill
	ldr	x1, [sp, #16]
	bl	__ZNSt3__16vectorIfNS_9allocatorIfEEE16__destroy_vectorC2B8ne180100ERS3_
	ldr	x0, [sp, #8]                    ; 8-byte Folded Reload
	ldp	x29, x30, [sp, #32]             ; 16-byte Folded Reload
	add	sp, sp, #48
	ret
	.cfi_endproc
                                        ; -- End function
	.private_extern	__ZNSt3__16vectorIfNS_9allocatorIfEEE11__vallocateB8ne180100Em ; -- Begin function _ZNSt3__16vectorIfNS_9allocatorIfEEE11__vallocateB8ne180100Em
	.globl	__ZNSt3__16vectorIfNS_9allocatorIfEEE11__vallocateB8ne180100Em
	.weak_definition	__ZNSt3__16vectorIfNS_9allocatorIfEEE11__vallocateB8ne180100Em
	.p2align	2
__ZNSt3__16vectorIfNS_9allocatorIfEEE11__vallocateB8ne180100Em: ; @_ZNSt3__16vectorIfNS_9allocatorIfEEE11__vallocateB8ne180100Em
	.cfi_startproc
; %bb.0:
	sub	sp, sp, #80
	stp	x29, x30, [sp, #64]             ; 16-byte Folded Spill
	add	x29, sp, #64
	.cfi_def_cfa w29, 16
	.cfi_offset w30, -8
	.cfi_offset w29, -16
	stur	x0, [x29, #-8]
	stur	x1, [x29, #-16]
	ldur	x0, [x29, #-8]
	str	x0, [sp, #16]                   ; 8-byte Folded Spill
	ldur	x8, [x29, #-16]
	str	x8, [sp, #24]                   ; 8-byte Folded Spill
	bl	__ZNKSt3__16vectorIfNS_9allocatorIfEEE8max_sizeEv
	ldr	x8, [sp, #24]                   ; 8-byte Folded Reload
	subs	x8, x8, x0
	cset	w8, ls
	tbnz	w8, #0, LBB38_2
	b	LBB38_1
LBB38_1:
	ldr	x0, [sp, #16]                   ; 8-byte Folded Reload
	bl	__ZNKSt3__16vectorIfNS_9allocatorIfEEE20__throw_length_errorB8ne180100Ev
LBB38_2:
	ldr	x0, [sp, #16]                   ; 8-byte Folded Reload
	bl	__ZNSt3__16vectorIfNS_9allocatorIfEEE7__allocB8ne180100Ev
	ldur	x1, [x29, #-16]
	bl	__ZNSt3__119__allocate_at_leastB8ne180100INS_9allocatorIfEEEENS_19__allocation_resultINS_16allocator_traitsIT_E7pointerEEERS5_m
	mov	x8, x0
	ldr	x0, [sp, #16]                   ; 8-byte Folded Reload
	str	x8, [sp, #32]
	str	x1, [sp, #40]
	ldr	x8, [sp, #32]
	str	x8, [x0]
	ldr	x8, [sp, #32]
	str	x8, [x0, #8]
	ldr	x8, [x0]
	ldr	x9, [sp, #40]
	add	x8, x8, x9, lsl #2
	str	x8, [sp, #8]                    ; 8-byte Folded Spill
	bl	__ZNSt3__16vectorIfNS_9allocatorIfEEE9__end_capB8ne180100Ev
	ldr	x8, [sp, #8]                    ; 8-byte Folded Reload
	mov	x9, x0
	ldr	x0, [sp, #16]                   ; 8-byte Folded Reload
	str	x8, [x9]
	mov	x1, #0                          ; =0x0
	bl	__ZNKSt3__16vectorIfNS_9allocatorIfEEE14__annotate_newB8ne180100Em
	ldp	x29, x30, [sp, #64]             ; 16-byte Folded Reload
	add	sp, sp, #80
	ret
	.cfi_endproc
                                        ; -- End function
	.private_extern	__ZNSt3__16vectorIfNS_9allocatorIfEEE18__construct_at_endEm ; -- Begin function _ZNSt3__16vectorIfNS_9allocatorIfEEE18__construct_at_endEm
	.globl	__ZNSt3__16vectorIfNS_9allocatorIfEEE18__construct_at_endEm
	.weak_definition	__ZNSt3__16vectorIfNS_9allocatorIfEEE18__construct_at_endEm
	.p2align	2
__ZNSt3__16vectorIfNS_9allocatorIfEEE18__construct_at_endEm: ; @_ZNSt3__16vectorIfNS_9allocatorIfEEE18__construct_at_endEm
Lfunc_begin4:
	.cfi_startproc
	.cfi_personality 155, ___gxx_personality_v0
	.cfi_lsda 16, Lexception4
; %bb.0:
	sub	sp, sp, #112
	stp	x29, x30, [sp, #96]             ; 16-byte Folded Spill
	add	x29, sp, #96
	.cfi_def_cfa w29, 16
	.cfi_offset w30, -8
	.cfi_offset w29, -16
	stur	x0, [x29, #-8]
	stur	x1, [x29, #-16]
	ldur	x1, [x29, #-8]
	str	x1, [sp, #16]                   ; 8-byte Folded Spill
	ldur	x2, [x29, #-16]
	sub	x0, x29, #40
	bl	__ZNSt3__16vectorIfNS_9allocatorIfEEE21_ConstructTransactionC1B8ne180100ERS3_m
	ldur	x8, [x29, #-24]
	str	x8, [sp, #48]
	ldur	x8, [x29, #-32]
	str	x8, [sp, #40]
	b	LBB39_1
LBB39_1:                                ; =>This Inner Loop Header: Depth=1
	ldr	x8, [sp, #40]
	ldr	x9, [sp, #48]
	subs	x8, x8, x9
	cset	w8, eq
	tbnz	w8, #0, LBB39_6
	b	LBB39_2
LBB39_2:                                ;   in Loop: Header=BB39_1 Depth=1
	ldr	x0, [sp, #16]                   ; 8-byte Folded Reload
	bl	__ZNSt3__16vectorIfNS_9allocatorIfEEE7__allocB8ne180100Ev
	str	x0, [sp, #8]                    ; 8-byte Folded Spill
	ldr	x0, [sp, #40]
	bl	__ZNSt3__112__to_addressB8ne180100IfEEPT_S2_
	mov	x1, x0
	ldr	x0, [sp, #8]                    ; 8-byte Folded Reload
Ltmp34:
	bl	__ZNSt3__116allocator_traitsINS_9allocatorIfEEE9constructB8ne180100IfJEvEEvRS2_PT_DpOT0_
Ltmp35:
	b	LBB39_3
LBB39_3:                                ;   in Loop: Header=BB39_1 Depth=1
	b	LBB39_4
LBB39_4:                                ;   in Loop: Header=BB39_1 Depth=1
	ldr	x8, [sp, #40]
	add	x8, x8, #4
	mov	x9, x8
	str	x9, [sp, #40]
	stur	x8, [x29, #-32]
	b	LBB39_1
LBB39_5:
Ltmp36:
	str	x0, [sp, #32]
	mov	x8, x1
	str	w8, [sp, #28]
	sub	x0, x29, #40
	bl	__ZNSt3__16vectorIfNS_9allocatorIfEEE21_ConstructTransactionD1B8ne180100Ev
	b	LBB39_7
LBB39_6:
	sub	x0, x29, #40
	bl	__ZNSt3__16vectorIfNS_9allocatorIfEEE21_ConstructTransactionD1B8ne180100Ev
	ldp	x29, x30, [sp, #96]             ; 16-byte Folded Reload
	add	sp, sp, #112
	ret
LBB39_7:
	ldr	x0, [sp, #32]
	bl	__Unwind_Resume
Lfunc_end4:
	.cfi_endproc
	.section	__TEXT,__gcc_except_tab
	.p2align	2, 0x0
GCC_except_table39:
Lexception4:
	.byte	255                             ; @LPStart Encoding = omit
	.byte	255                             ; @TType Encoding = omit
	.byte	1                               ; Call site Encoding = uleb128
	.uleb128 Lcst_end4-Lcst_begin4
Lcst_begin4:
	.uleb128 Lfunc_begin4-Lfunc_begin4      ; >> Call Site 1 <<
	.uleb128 Ltmp34-Lfunc_begin4            ;   Call between Lfunc_begin4 and Ltmp34
	.byte	0                               ;     has no landing pad
	.byte	0                               ;   On action: cleanup
	.uleb128 Ltmp34-Lfunc_begin4            ; >> Call Site 2 <<
	.uleb128 Ltmp35-Ltmp34                  ;   Call between Ltmp34 and Ltmp35
	.uleb128 Ltmp36-Lfunc_begin4            ;     jumps to Ltmp36
	.byte	0                               ;   On action: cleanup
	.uleb128 Ltmp35-Lfunc_begin4            ; >> Call Site 3 <<
	.uleb128 Lfunc_end4-Ltmp35              ;   Call between Ltmp35 and Lfunc_end4
	.byte	0                               ;     has no landing pad
	.byte	0                               ;   On action: cleanup
Lcst_end4:
	.p2align	2, 0x0
                                        ; -- End function
	.section	__TEXT,__text,regular,pure_instructions
	.private_extern	__ZNSt3__128__exception_guard_exceptionsINS_6vectorIfNS_9allocatorIfEEE16__destroy_vectorEE10__completeB8ne180100Ev ; -- Begin function _ZNSt3__128__exception_guard_exceptionsINS_6vectorIfNS_9allocatorIfEEE16__destroy_vectorEE10__completeB8ne180100Ev
	.globl	__ZNSt3__128__exception_guard_exceptionsINS_6vectorIfNS_9allocatorIfEEE16__destroy_vectorEE10__completeB8ne180100Ev
	.weak_definition	__ZNSt3__128__exception_guard_exceptionsINS_6vectorIfNS_9allocatorIfEEE16__destroy_vectorEE10__completeB8ne180100Ev
	.p2align	2
__ZNSt3__128__exception_guard_exceptionsINS_6vectorIfNS_9allocatorIfEEE16__destroy_vectorEE10__completeB8ne180100Ev: ; @_ZNSt3__128__exception_guard_exceptionsINS_6vectorIfNS_9allocatorIfEEE16__destroy_vectorEE10__completeB8ne180100Ev
	.cfi_startproc
; %bb.0:
	sub	sp, sp, #16
	.cfi_def_cfa_offset 16
	str	x0, [sp, #8]
	ldr	x9, [sp, #8]
	mov	w8, #1                          ; =0x1
	strb	w8, [x9, #8]
	add	sp, sp, #16
	ret
	.cfi_endproc
                                        ; -- End function
	.private_extern	__ZNSt3__128__exception_guard_exceptionsINS_6vectorIfNS_9allocatorIfEEE16__destroy_vectorEED1B8ne180100Ev ; -- Begin function _ZNSt3__128__exception_guard_exceptionsINS_6vectorIfNS_9allocatorIfEEE16__destroy_vectorEED1B8ne180100Ev
	.globl	__ZNSt3__128__exception_guard_exceptionsINS_6vectorIfNS_9allocatorIfEEE16__destroy_vectorEED1B8ne180100Ev
	.weak_def_can_be_hidden	__ZNSt3__128__exception_guard_exceptionsINS_6vectorIfNS_9allocatorIfEEE16__destroy_vectorEED1B8ne180100Ev
	.p2align	2
__ZNSt3__128__exception_guard_exceptionsINS_6vectorIfNS_9allocatorIfEEE16__destroy_vectorEED1B8ne180100Ev: ; @_ZNSt3__128__exception_guard_exceptionsINS_6vectorIfNS_9allocatorIfEEE16__destroy_vectorEED1B8ne180100Ev
	.cfi_startproc
; %bb.0:
	sub	sp, sp, #32
	stp	x29, x30, [sp, #16]             ; 16-byte Folded Spill
	add	x29, sp, #16
	.cfi_def_cfa w29, 16
	.cfi_offset w30, -8
	.cfi_offset w29, -16
	str	x0, [sp, #8]
	ldr	x0, [sp, #8]
	str	x0, [sp]                        ; 8-byte Folded Spill
	bl	__ZNSt3__128__exception_guard_exceptionsINS_6vectorIfNS_9allocatorIfEEE16__destroy_vectorEED2B8ne180100Ev
	ldr	x0, [sp]                        ; 8-byte Folded Reload
	ldp	x29, x30, [sp, #16]             ; 16-byte Folded Reload
	add	sp, sp, #32
	ret
	.cfi_endproc
                                        ; -- End function
	.globl	__ZNSt3__117__compressed_pairIPfNS_9allocatorIfEEEC2B8ne180100IDnNS_18__default_init_tagEEEOT_OT0_ ; -- Begin function _ZNSt3__117__compressed_pairIPfNS_9allocatorIfEEEC2B8ne180100IDnNS_18__default_init_tagEEEOT_OT0_
	.weak_def_can_be_hidden	__ZNSt3__117__compressed_pairIPfNS_9allocatorIfEEEC2B8ne180100IDnNS_18__default_init_tagEEEOT_OT0_
	.p2align	2
__ZNSt3__117__compressed_pairIPfNS_9allocatorIfEEEC2B8ne180100IDnNS_18__default_init_tagEEEOT_OT0_: ; @_ZNSt3__117__compressed_pairIPfNS_9allocatorIfEEEC2B8ne180100IDnNS_18__default_init_tagEEEOT_OT0_
	.cfi_startproc
; %bb.0:
	sub	sp, sp, #64
	stp	x29, x30, [sp, #48]             ; 16-byte Folded Spill
	add	x29, sp, #48
	.cfi_def_cfa w29, 16
	.cfi_offset w30, -8
	.cfi_offset w29, -16
	stur	x0, [x29, #-8]
	stur	x1, [x29, #-16]
	str	x2, [sp, #24]
	ldur	x0, [x29, #-8]
	str	x0, [sp, #8]                    ; 8-byte Folded Spill
	ldur	x1, [x29, #-16]
	bl	__ZNSt3__122__compressed_pair_elemIPfLi0ELb0EEC2B8ne180100IDnvEEOT_
	ldr	x0, [sp, #8]                    ; 8-byte Folded Reload
	bl	__ZNSt3__122__compressed_pair_elemINS_9allocatorIfEELi1ELb1EEC2B8ne180100ENS_18__default_init_tagE
	ldr	x0, [sp, #8]                    ; 8-byte Folded Reload
	ldp	x29, x30, [sp, #48]             ; 16-byte Folded Reload
	add	sp, sp, #64
	ret
	.cfi_endproc
                                        ; -- End function
	.globl	__ZNSt3__122__compressed_pair_elemIPfLi0ELb0EEC2B8ne180100IDnvEEOT_ ; -- Begin function _ZNSt3__122__compressed_pair_elemIPfLi0ELb0EEC2B8ne180100IDnvEEOT_
	.weak_def_can_be_hidden	__ZNSt3__122__compressed_pair_elemIPfLi0ELb0EEC2B8ne180100IDnvEEOT_
	.p2align	2
__ZNSt3__122__compressed_pair_elemIPfLi0ELb0EEC2B8ne180100IDnvEEOT_: ; @_ZNSt3__122__compressed_pair_elemIPfLi0ELb0EEC2B8ne180100IDnvEEOT_
	.cfi_startproc
; %bb.0:
	sub	sp, sp, #16
	.cfi_def_cfa_offset 16
	str	x0, [sp, #8]
	str	x1, [sp]
	ldr	x0, [sp, #8]
                                        ; kill: def $x8 killed $xzr
	str	xzr, [x0]
	add	sp, sp, #16
	ret
	.cfi_endproc
                                        ; -- End function
	.private_extern	__ZNSt3__122__compressed_pair_elemINS_9allocatorIfEELi1ELb1EEC2B8ne180100ENS_18__default_init_tagE ; -- Begin function _ZNSt3__122__compressed_pair_elemINS_9allocatorIfEELi1ELb1EEC2B8ne180100ENS_18__default_init_tagE
	.globl	__ZNSt3__122__compressed_pair_elemINS_9allocatorIfEELi1ELb1EEC2B8ne180100ENS_18__default_init_tagE
	.weak_def_can_be_hidden	__ZNSt3__122__compressed_pair_elemINS_9allocatorIfEELi1ELb1EEC2B8ne180100ENS_18__default_init_tagE
	.p2align	2
__ZNSt3__122__compressed_pair_elemINS_9allocatorIfEELi1ELb1EEC2B8ne180100ENS_18__default_init_tagE: ; @_ZNSt3__122__compressed_pair_elemINS_9allocatorIfEELi1ELb1EEC2B8ne180100ENS_18__default_init_tagE
	.cfi_startproc
; %bb.0:
	sub	sp, sp, #48
	stp	x29, x30, [sp, #32]             ; 16-byte Folded Spill
	add	x29, sp, #32
	.cfi_def_cfa w29, 16
	.cfi_offset w30, -8
	.cfi_offset w29, -16
	str	x0, [sp, #16]
	ldr	x0, [sp, #16]
	str	x0, [sp, #8]                    ; 8-byte Folded Spill
	bl	__ZNSt3__19allocatorIfEC2B8ne180100Ev
	ldr	x0, [sp, #8]                    ; 8-byte Folded Reload
	ldp	x29, x30, [sp, #32]             ; 16-byte Folded Reload
	add	sp, sp, #48
	ret
	.cfi_endproc
                                        ; -- End function
	.private_extern	__ZNSt3__19allocatorIfEC2B8ne180100Ev ; -- Begin function _ZNSt3__19allocatorIfEC2B8ne180100Ev
	.globl	__ZNSt3__19allocatorIfEC2B8ne180100Ev
	.weak_def_can_be_hidden	__ZNSt3__19allocatorIfEC2B8ne180100Ev
	.p2align	2
__ZNSt3__19allocatorIfEC2B8ne180100Ev:  ; @_ZNSt3__19allocatorIfEC2B8ne180100Ev
	.cfi_startproc
; %bb.0:
	sub	sp, sp, #32
	stp	x29, x30, [sp, #16]             ; 16-byte Folded Spill
	add	x29, sp, #16
	.cfi_def_cfa w29, 16
	.cfi_offset w30, -8
	.cfi_offset w29, -16
	str	x0, [sp, #8]
	ldr	x0, [sp, #8]
	str	x0, [sp]                        ; 8-byte Folded Spill
	bl	__ZNSt3__116__non_trivial_ifILb1ENS_9allocatorIfEEEC2B8ne180100Ev
	ldr	x0, [sp]                        ; 8-byte Folded Reload
	ldp	x29, x30, [sp, #16]             ; 16-byte Folded Reload
	add	sp, sp, #32
	ret
	.cfi_endproc
                                        ; -- End function
	.private_extern	__ZNSt3__116__non_trivial_ifILb1ENS_9allocatorIfEEEC2B8ne180100Ev ; -- Begin function _ZNSt3__116__non_trivial_ifILb1ENS_9allocatorIfEEEC2B8ne180100Ev
	.globl	__ZNSt3__116__non_trivial_ifILb1ENS_9allocatorIfEEEC2B8ne180100Ev
	.weak_def_can_be_hidden	__ZNSt3__116__non_trivial_ifILb1ENS_9allocatorIfEEEC2B8ne180100Ev
	.p2align	2
__ZNSt3__116__non_trivial_ifILb1ENS_9allocatorIfEEEC2B8ne180100Ev: ; @_ZNSt3__116__non_trivial_ifILb1ENS_9allocatorIfEEEC2B8ne180100Ev
	.cfi_startproc
; %bb.0:
	sub	sp, sp, #16
	.cfi_def_cfa_offset 16
	str	x0, [sp, #8]
	ldr	x0, [sp, #8]
	add	sp, sp, #16
	ret
	.cfi_endproc
                                        ; -- End function
	.private_extern	__ZNSt3__128__exception_guard_exceptionsINS_6vectorIfNS_9allocatorIfEEE16__destroy_vectorEEC1B8ne180100ES5_ ; -- Begin function _ZNSt3__128__exception_guard_exceptionsINS_6vectorIfNS_9allocatorIfEEE16__destroy_vectorEEC1B8ne180100ES5_
	.globl	__ZNSt3__128__exception_guard_exceptionsINS_6vectorIfNS_9allocatorIfEEE16__destroy_vectorEEC1B8ne180100ES5_
	.weak_def_can_be_hidden	__ZNSt3__128__exception_guard_exceptionsINS_6vectorIfNS_9allocatorIfEEE16__destroy_vectorEEC1B8ne180100ES5_
	.p2align	2
__ZNSt3__128__exception_guard_exceptionsINS_6vectorIfNS_9allocatorIfEEE16__destroy_vectorEEC1B8ne180100ES5_: ; @_ZNSt3__128__exception_guard_exceptionsINS_6vectorIfNS_9allocatorIfEEE16__destroy_vectorEEC1B8ne180100ES5_
	.cfi_startproc
; %bb.0:
	sub	sp, sp, #48
	stp	x29, x30, [sp, #32]             ; 16-byte Folded Spill
	add	x29, sp, #32
	.cfi_def_cfa w29, 16
	.cfi_offset w30, -8
	.cfi_offset w29, -16
	stur	x1, [x29, #-8]
	str	x0, [sp, #16]
	ldr	x0, [sp, #16]
	str	x0, [sp, #8]                    ; 8-byte Folded Spill
	ldur	x1, [x29, #-8]
	bl	__ZNSt3__128__exception_guard_exceptionsINS_6vectorIfNS_9allocatorIfEEE16__destroy_vectorEEC2B8ne180100ES5_
	ldr	x0, [sp, #8]                    ; 8-byte Folded Reload
	ldp	x29, x30, [sp, #32]             ; 16-byte Folded Reload
	add	sp, sp, #48
	ret
	.cfi_endproc
                                        ; -- End function
	.private_extern	__ZNSt3__128__exception_guard_exceptionsINS_6vectorIfNS_9allocatorIfEEE16__destroy_vectorEEC2B8ne180100ES5_ ; -- Begin function _ZNSt3__128__exception_guard_exceptionsINS_6vectorIfNS_9allocatorIfEEE16__destroy_vectorEEC2B8ne180100ES5_
	.globl	__ZNSt3__128__exception_guard_exceptionsINS_6vectorIfNS_9allocatorIfEEE16__destroy_vectorEEC2B8ne180100ES5_
	.weak_def_can_be_hidden	__ZNSt3__128__exception_guard_exceptionsINS_6vectorIfNS_9allocatorIfEEE16__destroy_vectorEEC2B8ne180100ES5_
	.p2align	2
__ZNSt3__128__exception_guard_exceptionsINS_6vectorIfNS_9allocatorIfEEE16__destroy_vectorEEC2B8ne180100ES5_: ; @_ZNSt3__128__exception_guard_exceptionsINS_6vectorIfNS_9allocatorIfEEE16__destroy_vectorEEC2B8ne180100ES5_
	.cfi_startproc
; %bb.0:
	sub	sp, sp, #16
	.cfi_def_cfa_offset 16
	str	x1, [sp, #8]
	str	x0, [sp]
	ldr	x0, [sp]
	ldr	x8, [sp, #8]
	str	x8, [x0]
	strb	wzr, [x0, #8]
	add	sp, sp, #16
	ret
	.cfi_endproc
                                        ; -- End function
	.private_extern	__ZNSt3__16vectorIfNS_9allocatorIfEEE16__destroy_vectorC2B8ne180100ERS3_ ; -- Begin function _ZNSt3__16vectorIfNS_9allocatorIfEEE16__destroy_vectorC2B8ne180100ERS3_
	.globl	__ZNSt3__16vectorIfNS_9allocatorIfEEE16__destroy_vectorC2B8ne180100ERS3_
	.weak_def_can_be_hidden	__ZNSt3__16vectorIfNS_9allocatorIfEEE16__destroy_vectorC2B8ne180100ERS3_
	.p2align	2
__ZNSt3__16vectorIfNS_9allocatorIfEEE16__destroy_vectorC2B8ne180100ERS3_: ; @_ZNSt3__16vectorIfNS_9allocatorIfEEE16__destroy_vectorC2B8ne180100ERS3_
	.cfi_startproc
; %bb.0:
	sub	sp, sp, #16
	.cfi_def_cfa_offset 16
	str	x0, [sp, #8]
	str	x1, [sp]
	ldr	x0, [sp, #8]
	ldr	x8, [sp]
	str	x8, [x0]
	add	sp, sp, #16
	ret
	.cfi_endproc
                                        ; -- End function
	.private_extern	__ZNKSt3__16vectorIfNS_9allocatorIfEEE8max_sizeEv ; -- Begin function _ZNKSt3__16vectorIfNS_9allocatorIfEEE8max_sizeEv
	.globl	__ZNKSt3__16vectorIfNS_9allocatorIfEEE8max_sizeEv
	.weak_definition	__ZNKSt3__16vectorIfNS_9allocatorIfEEE8max_sizeEv
	.p2align	2
__ZNKSt3__16vectorIfNS_9allocatorIfEEE8max_sizeEv: ; @_ZNKSt3__16vectorIfNS_9allocatorIfEEE8max_sizeEv
Lfunc_begin5:
	.cfi_startproc
	.cfi_personality 155, ___gxx_personality_v0
	.cfi_lsda 16, Lexception5
; %bb.0:
	sub	sp, sp, #64
	stp	x29, x30, [sp, #48]             ; 16-byte Folded Spill
	add	x29, sp, #48
	.cfi_def_cfa w29, 16
	.cfi_offset w30, -8
	.cfi_offset w29, -16
	stur	x0, [x29, #-8]
	ldur	x0, [x29, #-8]
	bl	__ZNKSt3__16vectorIfNS_9allocatorIfEEE7__allocB8ne180100Ev
	bl	__ZNSt3__116allocator_traitsINS_9allocatorIfEEE8max_sizeB8ne180100IS2_vEEmRKS2_
	sub	x8, x29, #16
	str	x8, [sp, #8]                    ; 8-byte Folded Spill
	stur	x0, [x29, #-16]
	bl	__ZNSt3__114numeric_limitsIlE3maxB8ne180100Ev
	mov	x8, x0
	ldr	x0, [sp, #8]                    ; 8-byte Folded Reload
	add	x1, sp, #24
	str	x8, [sp, #24]
Ltmp42:
	bl	__ZNSt3__13minB8ne180100ImEERKT_S3_S3_
	str	x0, [sp, #16]                   ; 8-byte Folded Spill
Ltmp43:
	b	LBB50_1
LBB50_1:
	ldr	x8, [sp, #16]                   ; 8-byte Folded Reload
	ldr	x0, [x8]
	ldp	x29, x30, [sp, #48]             ; 16-byte Folded Reload
	add	sp, sp, #64
	ret
LBB50_2:
Ltmp44:
	bl	___clang_call_terminate
Lfunc_end5:
	.cfi_endproc
	.section	__TEXT,__gcc_except_tab
	.p2align	2, 0x0
GCC_except_table50:
Lexception5:
	.byte	255                             ; @LPStart Encoding = omit
	.byte	155                             ; @TType Encoding = indirect pcrel sdata4
	.uleb128 Lttbase1-Lttbaseref1
Lttbaseref1:
	.byte	1                               ; Call site Encoding = uleb128
	.uleb128 Lcst_end5-Lcst_begin5
Lcst_begin5:
	.uleb128 Ltmp42-Lfunc_begin5            ; >> Call Site 1 <<
	.uleb128 Ltmp43-Ltmp42                  ;   Call between Ltmp42 and Ltmp43
	.uleb128 Ltmp44-Lfunc_begin5            ;     jumps to Ltmp44
	.byte	1                               ;   On action: 1
Lcst_end5:
	.byte	1                               ; >> Action Record 1 <<
                                        ;   Catch TypeInfo 1
	.byte	0                               ;   No further actions
	.p2align	2, 0x0
                                        ; >> Catch TypeInfos <<
	.long	0                               ; TypeInfo 1
Lttbase1:
	.p2align	2, 0x0
                                        ; -- End function
	.section	__TEXT,__text,regular,pure_instructions
	.private_extern	__ZNKSt3__16vectorIfNS_9allocatorIfEEE20__throw_length_errorB8ne180100Ev ; -- Begin function _ZNKSt3__16vectorIfNS_9allocatorIfEEE20__throw_length_errorB8ne180100Ev
	.globl	__ZNKSt3__16vectorIfNS_9allocatorIfEEE20__throw_length_errorB8ne180100Ev
	.weak_definition	__ZNKSt3__16vectorIfNS_9allocatorIfEEE20__throw_length_errorB8ne180100Ev
	.p2align	2
__ZNKSt3__16vectorIfNS_9allocatorIfEEE20__throw_length_errorB8ne180100Ev: ; @_ZNKSt3__16vectorIfNS_9allocatorIfEEE20__throw_length_errorB8ne180100Ev
	.cfi_startproc
; %bb.0:
	sub	sp, sp, #32
	stp	x29, x30, [sp, #16]             ; 16-byte Folded Spill
	add	x29, sp, #16
	.cfi_def_cfa w29, 16
	.cfi_offset w30, -8
	.cfi_offset w29, -16
	str	x0, [sp, #8]
	adrp	x0, l_.str.1@PAGE
	add	x0, x0, l_.str.1@PAGEOFF
	bl	__ZNSt3__120__throw_length_errorB8ne180100EPKc
	.cfi_endproc
                                        ; -- End function
	.private_extern	__ZNSt3__119__allocate_at_leastB8ne180100INS_9allocatorIfEEEENS_19__allocation_resultINS_16allocator_traitsIT_E7pointerEEERS5_m ; -- Begin function _ZNSt3__119__allocate_at_leastB8ne180100INS_9allocatorIfEEEENS_19__allocation_resultINS_16allocator_traitsIT_E7pointerEEERS5_m
	.globl	__ZNSt3__119__allocate_at_leastB8ne180100INS_9allocatorIfEEEENS_19__allocation_resultINS_16allocator_traitsIT_E7pointerEEERS5_m
	.weak_definition	__ZNSt3__119__allocate_at_leastB8ne180100INS_9allocatorIfEEEENS_19__allocation_resultINS_16allocator_traitsIT_E7pointerEEERS5_m
	.p2align	2
__ZNSt3__119__allocate_at_leastB8ne180100INS_9allocatorIfEEEENS_19__allocation_resultINS_16allocator_traitsIT_E7pointerEEERS5_m: ; @_ZNSt3__119__allocate_at_leastB8ne180100INS_9allocatorIfEEEENS_19__allocation_resultINS_16allocator_traitsIT_E7pointerEEERS5_m
	.cfi_startproc
; %bb.0:
	sub	sp, sp, #48
	stp	x29, x30, [sp, #32]             ; 16-byte Folded Spill
	add	x29, sp, #32
	.cfi_def_cfa w29, 16
	.cfi_offset w30, -8
	.cfi_offset w29, -16
	str	x0, [sp, #8]
	str	x1, [sp]
	ldr	x0, [sp, #8]
	ldr	x1, [sp]
	bl	__ZNSt3__19allocatorIfE8allocateB8ne180100Em
	str	x0, [sp, #16]
	ldr	x8, [sp]
	str	x8, [sp, #24]
	ldr	x0, [sp, #16]
	ldr	x1, [sp, #24]
	ldp	x29, x30, [sp, #32]             ; 16-byte Folded Reload
	add	sp, sp, #48
	ret
	.cfi_endproc
                                        ; -- End function
	.private_extern	__ZNSt3__16vectorIfNS_9allocatorIfEEE7__allocB8ne180100Ev ; -- Begin function _ZNSt3__16vectorIfNS_9allocatorIfEEE7__allocB8ne180100Ev
	.globl	__ZNSt3__16vectorIfNS_9allocatorIfEEE7__allocB8ne180100Ev
	.weak_definition	__ZNSt3__16vectorIfNS_9allocatorIfEEE7__allocB8ne180100Ev
	.p2align	2
__ZNSt3__16vectorIfNS_9allocatorIfEEE7__allocB8ne180100Ev: ; @_ZNSt3__16vectorIfNS_9allocatorIfEEE7__allocB8ne180100Ev
	.cfi_startproc
; %bb.0:
	sub	sp, sp, #32
	stp	x29, x30, [sp, #16]             ; 16-byte Folded Spill
	add	x29, sp, #16
	.cfi_def_cfa w29, 16
	.cfi_offset w30, -8
	.cfi_offset w29, -16
	str	x0, [sp, #8]
	ldr	x8, [sp, #8]
	add	x0, x8, #16
	bl	__ZNSt3__117__compressed_pairIPfNS_9allocatorIfEEE6secondB8ne180100Ev
	ldp	x29, x30, [sp, #16]             ; 16-byte Folded Reload
	add	sp, sp, #32
	ret
	.cfi_endproc
                                        ; -- End function
	.private_extern	__ZNSt3__16vectorIfNS_9allocatorIfEEE9__end_capB8ne180100Ev ; -- Begin function _ZNSt3__16vectorIfNS_9allocatorIfEEE9__end_capB8ne180100Ev
	.globl	__ZNSt3__16vectorIfNS_9allocatorIfEEE9__end_capB8ne180100Ev
	.weak_definition	__ZNSt3__16vectorIfNS_9allocatorIfEEE9__end_capB8ne180100Ev
	.p2align	2
__ZNSt3__16vectorIfNS_9allocatorIfEEE9__end_capB8ne180100Ev: ; @_ZNSt3__16vectorIfNS_9allocatorIfEEE9__end_capB8ne180100Ev
	.cfi_startproc
; %bb.0:
	sub	sp, sp, #32
	stp	x29, x30, [sp, #16]             ; 16-byte Folded Spill
	add	x29, sp, #16
	.cfi_def_cfa w29, 16
	.cfi_offset w30, -8
	.cfi_offset w29, -16
	str	x0, [sp, #8]
	ldr	x8, [sp, #8]
	add	x0, x8, #16
	bl	__ZNSt3__117__compressed_pairIPfNS_9allocatorIfEEE5firstB8ne180100Ev
	ldp	x29, x30, [sp, #16]             ; 16-byte Folded Reload
	add	sp, sp, #32
	ret
	.cfi_endproc
                                        ; -- End function
	.private_extern	__ZNKSt3__16vectorIfNS_9allocatorIfEEE14__annotate_newB8ne180100Em ; -- Begin function _ZNKSt3__16vectorIfNS_9allocatorIfEEE14__annotate_newB8ne180100Em
	.globl	__ZNKSt3__16vectorIfNS_9allocatorIfEEE14__annotate_newB8ne180100Em
	.weak_definition	__ZNKSt3__16vectorIfNS_9allocatorIfEEE14__annotate_newB8ne180100Em
	.p2align	2
__ZNKSt3__16vectorIfNS_9allocatorIfEEE14__annotate_newB8ne180100Em: ; @_ZNKSt3__16vectorIfNS_9allocatorIfEEE14__annotate_newB8ne180100Em
	.cfi_startproc
; %bb.0:
	sub	sp, sp, #16
	.cfi_def_cfa_offset 16
	str	x0, [sp, #8]
	str	x1, [sp]
	add	sp, sp, #16
	ret
	.cfi_endproc
                                        ; -- End function
	.private_extern	__ZNSt3__13minB8ne180100ImEERKT_S3_S3_ ; -- Begin function _ZNSt3__13minB8ne180100ImEERKT_S3_S3_
	.globl	__ZNSt3__13minB8ne180100ImEERKT_S3_S3_
	.weak_definition	__ZNSt3__13minB8ne180100ImEERKT_S3_S3_
	.p2align	2
__ZNSt3__13minB8ne180100ImEERKT_S3_S3_: ; @_ZNSt3__13minB8ne180100ImEERKT_S3_S3_
	.cfi_startproc
; %bb.0:
	sub	sp, sp, #48
	stp	x29, x30, [sp, #32]             ; 16-byte Folded Spill
	add	x29, sp, #32
	.cfi_def_cfa w29, 16
	.cfi_offset w30, -8
	.cfi_offset w29, -16
	stur	x0, [x29, #-8]
	str	x1, [sp, #16]
	ldur	x0, [x29, #-8]
	ldr	x1, [sp, #16]
	bl	__ZNSt3__13minB8ne180100ImNS_6__lessIvvEEEERKT_S5_S5_T0_
	ldp	x29, x30, [sp, #32]             ; 16-byte Folded Reload
	add	sp, sp, #48
	ret
	.cfi_endproc
                                        ; -- End function
	.globl	__ZNSt3__116allocator_traitsINS_9allocatorIfEEE8max_sizeB8ne180100IS2_vEEmRKS2_ ; -- Begin function _ZNSt3__116allocator_traitsINS_9allocatorIfEEE8max_sizeB8ne180100IS2_vEEmRKS2_
	.weak_definition	__ZNSt3__116allocator_traitsINS_9allocatorIfEEE8max_sizeB8ne180100IS2_vEEmRKS2_
	.p2align	2
__ZNSt3__116allocator_traitsINS_9allocatorIfEEE8max_sizeB8ne180100IS2_vEEmRKS2_: ; @_ZNSt3__116allocator_traitsINS_9allocatorIfEEE8max_sizeB8ne180100IS2_vEEmRKS2_
	.cfi_startproc
; %bb.0:
	sub	sp, sp, #32
	stp	x29, x30, [sp, #16]             ; 16-byte Folded Spill
	add	x29, sp, #16
	.cfi_def_cfa w29, 16
	.cfi_offset w30, -8
	.cfi_offset w29, -16
	str	x0, [sp, #8]
	ldr	x0, [sp, #8]
	bl	__ZNKSt3__19allocatorIfE8max_sizeB8ne180100Ev
	ldp	x29, x30, [sp, #16]             ; 16-byte Folded Reload
	add	sp, sp, #32
	ret
	.cfi_endproc
                                        ; -- End function
	.private_extern	__ZNKSt3__16vectorIfNS_9allocatorIfEEE7__allocB8ne180100Ev ; -- Begin function _ZNKSt3__16vectorIfNS_9allocatorIfEEE7__allocB8ne180100Ev
	.globl	__ZNKSt3__16vectorIfNS_9allocatorIfEEE7__allocB8ne180100Ev
	.weak_definition	__ZNKSt3__16vectorIfNS_9allocatorIfEEE7__allocB8ne180100Ev
	.p2align	2
__ZNKSt3__16vectorIfNS_9allocatorIfEEE7__allocB8ne180100Ev: ; @_ZNKSt3__16vectorIfNS_9allocatorIfEEE7__allocB8ne180100Ev
	.cfi_startproc
; %bb.0:
	sub	sp, sp, #32
	stp	x29, x30, [sp, #16]             ; 16-byte Folded Spill
	add	x29, sp, #16
	.cfi_def_cfa w29, 16
	.cfi_offset w30, -8
	.cfi_offset w29, -16
	str	x0, [sp, #8]
	ldr	x8, [sp, #8]
	add	x0, x8, #16
	bl	__ZNKSt3__117__compressed_pairIPfNS_9allocatorIfEEE6secondB8ne180100Ev
	ldp	x29, x30, [sp, #16]             ; 16-byte Folded Reload
	add	sp, sp, #32
	ret
	.cfi_endproc
                                        ; -- End function
	.private_extern	__ZNSt3__114numeric_limitsIlE3maxB8ne180100Ev ; -- Begin function _ZNSt3__114numeric_limitsIlE3maxB8ne180100Ev
	.globl	__ZNSt3__114numeric_limitsIlE3maxB8ne180100Ev
	.weak_definition	__ZNSt3__114numeric_limitsIlE3maxB8ne180100Ev
	.p2align	2
__ZNSt3__114numeric_limitsIlE3maxB8ne180100Ev: ; @_ZNSt3__114numeric_limitsIlE3maxB8ne180100Ev
	.cfi_startproc
; %bb.0:
	stp	x29, x30, [sp, #-16]!           ; 16-byte Folded Spill
	mov	x29, sp
	.cfi_def_cfa w29, 16
	.cfi_offset w30, -8
	.cfi_offset w29, -16
	bl	__ZNSt3__123__libcpp_numeric_limitsIlLb1EE3maxB8ne180100Ev
	ldp	x29, x30, [sp], #16             ; 16-byte Folded Reload
	ret
	.cfi_endproc
                                        ; -- End function
	.private_extern	__ZNSt3__13minB8ne180100ImNS_6__lessIvvEEEERKT_S5_S5_T0_ ; -- Begin function _ZNSt3__13minB8ne180100ImNS_6__lessIvvEEEERKT_S5_S5_T0_
	.globl	__ZNSt3__13minB8ne180100ImNS_6__lessIvvEEEERKT_S5_S5_T0_
	.weak_definition	__ZNSt3__13minB8ne180100ImNS_6__lessIvvEEEERKT_S5_S5_T0_
	.p2align	2
__ZNSt3__13minB8ne180100ImNS_6__lessIvvEEEERKT_S5_S5_T0_: ; @_ZNSt3__13minB8ne180100ImNS_6__lessIvvEEEERKT_S5_S5_T0_
	.cfi_startproc
; %bb.0:
	sub	sp, sp, #48
	stp	x29, x30, [sp, #32]             ; 16-byte Folded Spill
	add	x29, sp, #32
	.cfi_def_cfa w29, 16
	.cfi_offset w30, -8
	.cfi_offset w29, -16
	str	x0, [sp, #16]
	str	x1, [sp, #8]
	ldr	x1, [sp, #8]
	ldr	x2, [sp, #16]
	sub	x0, x29, #1
	bl	__ZNKSt3__16__lessIvvEclB8ne180100ImmEEbRKT_RKT0_
	tbz	w0, #0, LBB60_2
	b	LBB60_1
LBB60_1:
	ldr	x8, [sp, #8]
	str	x8, [sp]                        ; 8-byte Folded Spill
	b	LBB60_3
LBB60_2:
	ldr	x8, [sp, #16]
	str	x8, [sp]                        ; 8-byte Folded Spill
	b	LBB60_3
LBB60_3:
	ldr	x0, [sp]                        ; 8-byte Folded Reload
	ldp	x29, x30, [sp, #32]             ; 16-byte Folded Reload
	add	sp, sp, #48
	ret
	.cfi_endproc
                                        ; -- End function
	.private_extern	__ZNKSt3__16__lessIvvEclB8ne180100ImmEEbRKT_RKT0_ ; -- Begin function _ZNKSt3__16__lessIvvEclB8ne180100ImmEEbRKT_RKT0_
	.globl	__ZNKSt3__16__lessIvvEclB8ne180100ImmEEbRKT_RKT0_
	.weak_definition	__ZNKSt3__16__lessIvvEclB8ne180100ImmEEbRKT_RKT0_
	.p2align	2
__ZNKSt3__16__lessIvvEclB8ne180100ImmEEbRKT_RKT0_: ; @_ZNKSt3__16__lessIvvEclB8ne180100ImmEEbRKT_RKT0_
	.cfi_startproc
; %bb.0:
	sub	sp, sp, #32
	.cfi_def_cfa_offset 32
	str	x0, [sp, #24]
	str	x1, [sp, #16]
	str	x2, [sp, #8]
	ldr	x8, [sp, #16]
	ldr	x8, [x8]
	ldr	x9, [sp, #8]
	ldr	x9, [x9]
	subs	x8, x8, x9
	cset	w8, lo
	and	w0, w8, #0x1
	add	sp, sp, #32
	ret
	.cfi_endproc
                                        ; -- End function
	.private_extern	__ZNKSt3__19allocatorIfE8max_sizeB8ne180100Ev ; -- Begin function _ZNKSt3__19allocatorIfE8max_sizeB8ne180100Ev
	.globl	__ZNKSt3__19allocatorIfE8max_sizeB8ne180100Ev
	.weak_definition	__ZNKSt3__19allocatorIfE8max_sizeB8ne180100Ev
	.p2align	2
__ZNKSt3__19allocatorIfE8max_sizeB8ne180100Ev: ; @_ZNKSt3__19allocatorIfE8max_sizeB8ne180100Ev
	.cfi_startproc
; %bb.0:
	sub	sp, sp, #16
	.cfi_def_cfa_offset 16
	str	x0, [sp, #8]
	mov	x0, #4611686018427387903        ; =0x3fffffffffffffff
	add	sp, sp, #16
	ret
	.cfi_endproc
                                        ; -- End function
	.private_extern	__ZNKSt3__117__compressed_pairIPfNS_9allocatorIfEEE6secondB8ne180100Ev ; -- Begin function _ZNKSt3__117__compressed_pairIPfNS_9allocatorIfEEE6secondB8ne180100Ev
	.globl	__ZNKSt3__117__compressed_pairIPfNS_9allocatorIfEEE6secondB8ne180100Ev
	.weak_definition	__ZNKSt3__117__compressed_pairIPfNS_9allocatorIfEEE6secondB8ne180100Ev
	.p2align	2
__ZNKSt3__117__compressed_pairIPfNS_9allocatorIfEEE6secondB8ne180100Ev: ; @_ZNKSt3__117__compressed_pairIPfNS_9allocatorIfEEE6secondB8ne180100Ev
	.cfi_startproc
; %bb.0:
	sub	sp, sp, #32
	stp	x29, x30, [sp, #16]             ; 16-byte Folded Spill
	add	x29, sp, #16
	.cfi_def_cfa w29, 16
	.cfi_offset w30, -8
	.cfi_offset w29, -16
	str	x0, [sp, #8]
	ldr	x0, [sp, #8]
	bl	__ZNKSt3__122__compressed_pair_elemINS_9allocatorIfEELi1ELb1EE5__getB8ne180100Ev
	ldp	x29, x30, [sp, #16]             ; 16-byte Folded Reload
	add	sp, sp, #32
	ret
	.cfi_endproc
                                        ; -- End function
	.private_extern	__ZNKSt3__122__compressed_pair_elemINS_9allocatorIfEELi1ELb1EE5__getB8ne180100Ev ; -- Begin function _ZNKSt3__122__compressed_pair_elemINS_9allocatorIfEELi1ELb1EE5__getB8ne180100Ev
	.globl	__ZNKSt3__122__compressed_pair_elemINS_9allocatorIfEELi1ELb1EE5__getB8ne180100Ev
	.weak_definition	__ZNKSt3__122__compressed_pair_elemINS_9allocatorIfEELi1ELb1EE5__getB8ne180100Ev
	.p2align	2
__ZNKSt3__122__compressed_pair_elemINS_9allocatorIfEELi1ELb1EE5__getB8ne180100Ev: ; @_ZNKSt3__122__compressed_pair_elemINS_9allocatorIfEELi1ELb1EE5__getB8ne180100Ev
	.cfi_startproc
; %bb.0:
	sub	sp, sp, #16
	.cfi_def_cfa_offset 16
	str	x0, [sp, #8]
	ldr	x0, [sp, #8]
	add	sp, sp, #16
	ret
	.cfi_endproc
                                        ; -- End function
	.private_extern	__ZNSt3__123__libcpp_numeric_limitsIlLb1EE3maxB8ne180100Ev ; -- Begin function _ZNSt3__123__libcpp_numeric_limitsIlLb1EE3maxB8ne180100Ev
	.globl	__ZNSt3__123__libcpp_numeric_limitsIlLb1EE3maxB8ne180100Ev
	.weak_definition	__ZNSt3__123__libcpp_numeric_limitsIlLb1EE3maxB8ne180100Ev
	.p2align	2
__ZNSt3__123__libcpp_numeric_limitsIlLb1EE3maxB8ne180100Ev: ; @_ZNSt3__123__libcpp_numeric_limitsIlLb1EE3maxB8ne180100Ev
	.cfi_startproc
; %bb.0:
	mov	x0, #9223372036854775807        ; =0x7fffffffffffffff
	ret
	.cfi_endproc
                                        ; -- End function
	.private_extern	__ZNSt3__120__throw_length_errorB8ne180100EPKc ; -- Begin function _ZNSt3__120__throw_length_errorB8ne180100EPKc
	.globl	__ZNSt3__120__throw_length_errorB8ne180100EPKc
	.weak_definition	__ZNSt3__120__throw_length_errorB8ne180100EPKc
	.p2align	2
__ZNSt3__120__throw_length_errorB8ne180100EPKc: ; @_ZNSt3__120__throw_length_errorB8ne180100EPKc
Lfunc_begin6:
	.cfi_startproc
	.cfi_personality 155, ___gxx_personality_v0
	.cfi_lsda 16, Lexception6
; %bb.0:
	sub	sp, sp, #48
	stp	x29, x30, [sp, #32]             ; 16-byte Folded Spill
	add	x29, sp, #32
	.cfi_def_cfa w29, 16
	.cfi_offset w30, -8
	.cfi_offset w29, -16
	stur	x0, [x29, #-8]
	mov	x0, #16                         ; =0x10
	bl	___cxa_allocate_exception
	str	x0, [sp]                        ; 8-byte Folded Spill
	ldur	x1, [x29, #-8]
Ltmp49:
	bl	__ZNSt12length_errorC1B8ne180100EPKc
Ltmp50:
	b	LBB66_1
LBB66_1:
	ldr	x0, [sp]                        ; 8-byte Folded Reload
	adrp	x1, __ZTISt12length_error@GOTPAGE
	ldr	x1, [x1, __ZTISt12length_error@GOTPAGEOFF]
	adrp	x2, __ZNSt12length_errorD1Ev@GOTPAGE
	ldr	x2, [x2, __ZNSt12length_errorD1Ev@GOTPAGEOFF]
	bl	___cxa_throw
LBB66_2:
Ltmp51:
	mov	x8, x0
	ldr	x0, [sp]                        ; 8-byte Folded Reload
	str	x8, [sp, #16]
	mov	x8, x1
	str	w8, [sp, #12]
	bl	___cxa_free_exception
	b	LBB66_3
LBB66_3:
	ldr	x0, [sp, #16]
	bl	__Unwind_Resume
Lfunc_end6:
	.cfi_endproc
	.section	__TEXT,__gcc_except_tab
	.p2align	2, 0x0
GCC_except_table66:
Lexception6:
	.byte	255                             ; @LPStart Encoding = omit
	.byte	255                             ; @TType Encoding = omit
	.byte	1                               ; Call site Encoding = uleb128
	.uleb128 Lcst_end6-Lcst_begin6
Lcst_begin6:
	.uleb128 Lfunc_begin6-Lfunc_begin6      ; >> Call Site 1 <<
	.uleb128 Ltmp49-Lfunc_begin6            ;   Call between Lfunc_begin6 and Ltmp49
	.byte	0                               ;     has no landing pad
	.byte	0                               ;   On action: cleanup
	.uleb128 Ltmp49-Lfunc_begin6            ; >> Call Site 2 <<
	.uleb128 Ltmp50-Ltmp49                  ;   Call between Ltmp49 and Ltmp50
	.uleb128 Ltmp51-Lfunc_begin6            ;     jumps to Ltmp51
	.byte	0                               ;   On action: cleanup
	.uleb128 Ltmp50-Lfunc_begin6            ; >> Call Site 3 <<
	.uleb128 Lfunc_end6-Ltmp50              ;   Call between Ltmp50 and Lfunc_end6
	.byte	0                               ;     has no landing pad
	.byte	0                               ;   On action: cleanup
Lcst_end6:
	.p2align	2, 0x0
                                        ; -- End function
	.section	__TEXT,__text,regular,pure_instructions
	.private_extern	__ZNSt12length_errorC1B8ne180100EPKc ; -- Begin function _ZNSt12length_errorC1B8ne180100EPKc
	.globl	__ZNSt12length_errorC1B8ne180100EPKc
	.weak_def_can_be_hidden	__ZNSt12length_errorC1B8ne180100EPKc
	.p2align	2
__ZNSt12length_errorC1B8ne180100EPKc:   ; @_ZNSt12length_errorC1B8ne180100EPKc
	.cfi_startproc
; %bb.0:
	sub	sp, sp, #48
	stp	x29, x30, [sp, #32]             ; 16-byte Folded Spill
	add	x29, sp, #32
	.cfi_def_cfa w29, 16
	.cfi_offset w30, -8
	.cfi_offset w29, -16
	stur	x0, [x29, #-8]
	str	x1, [sp, #16]
	ldur	x0, [x29, #-8]
	str	x0, [sp, #8]                    ; 8-byte Folded Spill
	ldr	x1, [sp, #16]
	bl	__ZNSt12length_errorC2B8ne180100EPKc
	ldr	x0, [sp, #8]                    ; 8-byte Folded Reload
	ldp	x29, x30, [sp, #32]             ; 16-byte Folded Reload
	add	sp, sp, #48
	ret
	.cfi_endproc
                                        ; -- End function
	.private_extern	__ZNSt12length_errorC2B8ne180100EPKc ; -- Begin function _ZNSt12length_errorC2B8ne180100EPKc
	.globl	__ZNSt12length_errorC2B8ne180100EPKc
	.weak_def_can_be_hidden	__ZNSt12length_errorC2B8ne180100EPKc
	.p2align	2
__ZNSt12length_errorC2B8ne180100EPKc:   ; @_ZNSt12length_errorC2B8ne180100EPKc
	.cfi_startproc
; %bb.0:
	sub	sp, sp, #48
	stp	x29, x30, [sp, #32]             ; 16-byte Folded Spill
	add	x29, sp, #32
	.cfi_def_cfa w29, 16
	.cfi_offset w30, -8
	.cfi_offset w29, -16
	stur	x0, [x29, #-8]
	str	x1, [sp, #16]
	ldur	x0, [x29, #-8]
	str	x0, [sp, #8]                    ; 8-byte Folded Spill
	ldr	x1, [sp, #16]
	bl	__ZNSt11logic_errorC2EPKc
	ldr	x0, [sp, #8]                    ; 8-byte Folded Reload
	adrp	x8, __ZTVSt12length_error@GOTPAGE
	ldr	x8, [x8, __ZTVSt12length_error@GOTPAGEOFF]
	add	x8, x8, #16
	str	x8, [x0]
	ldp	x29, x30, [sp, #32]             ; 16-byte Folded Reload
	add	sp, sp, #48
	ret
	.cfi_endproc
                                        ; -- End function
	.private_extern	__ZNSt3__19allocatorIfE8allocateB8ne180100Em ; -- Begin function _ZNSt3__19allocatorIfE8allocateB8ne180100Em
	.globl	__ZNSt3__19allocatorIfE8allocateB8ne180100Em
	.weak_definition	__ZNSt3__19allocatorIfE8allocateB8ne180100Em
	.p2align	2
__ZNSt3__19allocatorIfE8allocateB8ne180100Em: ; @_ZNSt3__19allocatorIfE8allocateB8ne180100Em
	.cfi_startproc
; %bb.0:
	sub	sp, sp, #48
	stp	x29, x30, [sp, #32]             ; 16-byte Folded Spill
	add	x29, sp, #32
	.cfi_def_cfa w29, 16
	.cfi_offset w30, -8
	.cfi_offset w29, -16
	stur	x0, [x29, #-8]
	str	x1, [sp, #16]
	ldur	x0, [x29, #-8]
	ldr	x8, [sp, #16]
	str	x8, [sp, #8]                    ; 8-byte Folded Spill
	bl	__ZNSt3__116allocator_traitsINS_9allocatorIfEEE8max_sizeB8ne180100IS2_vEEmRKS2_
	ldr	x8, [sp, #8]                    ; 8-byte Folded Reload
	subs	x8, x8, x0
	cset	w8, ls
	tbnz	w8, #0, LBB69_2
	b	LBB69_1
LBB69_1:
	bl	__ZSt28__throw_bad_array_new_lengthB8ne180100v
LBB69_2:
	ldr	x8, [sp, #16]
	lsl	x0, x8, #2
	mov	x1, #4                          ; =0x4
	bl	__ZNSt3__117__libcpp_allocateB8ne180100Emm
	ldp	x29, x30, [sp, #32]             ; 16-byte Folded Reload
	add	sp, sp, #48
	ret
	.cfi_endproc
                                        ; -- End function
	.private_extern	__ZSt28__throw_bad_array_new_lengthB8ne180100v ; -- Begin function _ZSt28__throw_bad_array_new_lengthB8ne180100v
	.globl	__ZSt28__throw_bad_array_new_lengthB8ne180100v
	.weak_definition	__ZSt28__throw_bad_array_new_lengthB8ne180100v
	.p2align	2
__ZSt28__throw_bad_array_new_lengthB8ne180100v: ; @_ZSt28__throw_bad_array_new_lengthB8ne180100v
	.cfi_startproc
; %bb.0:
	sub	sp, sp, #32
	stp	x29, x30, [sp, #16]             ; 16-byte Folded Spill
	add	x29, sp, #16
	.cfi_def_cfa w29, 16
	.cfi_offset w30, -8
	.cfi_offset w29, -16
	mov	x0, #8                          ; =0x8
	bl	___cxa_allocate_exception
	str	x0, [sp, #8]                    ; 8-byte Folded Spill
	bl	__ZNSt20bad_array_new_lengthC1Ev
	ldr	x0, [sp, #8]                    ; 8-byte Folded Reload
	adrp	x1, __ZTISt20bad_array_new_length@GOTPAGE
	ldr	x1, [x1, __ZTISt20bad_array_new_length@GOTPAGEOFF]
	adrp	x2, __ZNSt20bad_array_new_lengthD1Ev@GOTPAGE
	ldr	x2, [x2, __ZNSt20bad_array_new_lengthD1Ev@GOTPAGEOFF]
	bl	___cxa_throw
	.cfi_endproc
                                        ; -- End function
	.private_extern	__ZNSt3__117__libcpp_allocateB8ne180100Emm ; -- Begin function _ZNSt3__117__libcpp_allocateB8ne180100Emm
	.globl	__ZNSt3__117__libcpp_allocateB8ne180100Emm
	.weak_definition	__ZNSt3__117__libcpp_allocateB8ne180100Emm
	.p2align	2
__ZNSt3__117__libcpp_allocateB8ne180100Emm: ; @_ZNSt3__117__libcpp_allocateB8ne180100Emm
	.cfi_startproc
; %bb.0:
	sub	sp, sp, #48
	stp	x29, x30, [sp, #32]             ; 16-byte Folded Spill
	add	x29, sp, #32
	.cfi_def_cfa w29, 16
	.cfi_offset w30, -8
	.cfi_offset w29, -16
	str	x0, [sp, #16]
	str	x1, [sp, #8]
	ldr	x0, [sp, #8]
	bl	__ZNSt3__124__is_overaligned_for_newB8ne180100Em
	tbz	w0, #0, LBB71_2
	b	LBB71_1
LBB71_1:
	ldr	x8, [sp, #8]
	str	x8, [sp]
	ldr	x0, [sp, #16]
	ldr	x1, [sp]
	bl	__ZNSt3__121__libcpp_operator_newB8ne180100IJmSt11align_val_tEEEPvDpT_
	stur	x0, [x29, #-8]
	b	LBB71_3
LBB71_2:
	ldr	x0, [sp, #16]
	bl	__ZNSt3__121__libcpp_operator_newB8ne180100IJmEEEPvDpT_
	stur	x0, [x29, #-8]
	b	LBB71_3
LBB71_3:
	ldur	x0, [x29, #-8]
	ldp	x29, x30, [sp, #32]             ; 16-byte Folded Reload
	add	sp, sp, #48
	ret
	.cfi_endproc
                                        ; -- End function
	.private_extern	__ZNSt3__124__is_overaligned_for_newB8ne180100Em ; -- Begin function _ZNSt3__124__is_overaligned_for_newB8ne180100Em
	.globl	__ZNSt3__124__is_overaligned_for_newB8ne180100Em
	.weak_definition	__ZNSt3__124__is_overaligned_for_newB8ne180100Em
	.p2align	2
__ZNSt3__124__is_overaligned_for_newB8ne180100Em: ; @_ZNSt3__124__is_overaligned_for_newB8ne180100Em
	.cfi_startproc
; %bb.0:
	sub	sp, sp, #16
	.cfi_def_cfa_offset 16
	str	x0, [sp, #8]
	ldr	x8, [sp, #8]
	subs	x8, x8, #16
	cset	w8, hi
	and	w0, w8, #0x1
	add	sp, sp, #16
	ret
	.cfi_endproc
                                        ; -- End function
	.private_extern	__ZNSt3__121__libcpp_operator_newB8ne180100IJmSt11align_val_tEEEPvDpT_ ; -- Begin function _ZNSt3__121__libcpp_operator_newB8ne180100IJmSt11align_val_tEEEPvDpT_
	.globl	__ZNSt3__121__libcpp_operator_newB8ne180100IJmSt11align_val_tEEEPvDpT_
	.weak_definition	__ZNSt3__121__libcpp_operator_newB8ne180100IJmSt11align_val_tEEEPvDpT_
	.p2align	2
__ZNSt3__121__libcpp_operator_newB8ne180100IJmSt11align_val_tEEEPvDpT_: ; @_ZNSt3__121__libcpp_operator_newB8ne180100IJmSt11align_val_tEEEPvDpT_
	.cfi_startproc
; %bb.0:
	sub	sp, sp, #32
	stp	x29, x30, [sp, #16]             ; 16-byte Folded Spill
	add	x29, sp, #16
	.cfi_def_cfa w29, 16
	.cfi_offset w30, -8
	.cfi_offset w29, -16
	str	x0, [sp, #8]
	str	x1, [sp]
	ldr	x0, [sp, #8]
	ldr	x1, [sp]
	bl	__ZnwmSt11align_val_t
	ldp	x29, x30, [sp, #16]             ; 16-byte Folded Reload
	add	sp, sp, #32
	ret
	.cfi_endproc
                                        ; -- End function
	.private_extern	__ZNSt3__121__libcpp_operator_newB8ne180100IJmEEEPvDpT_ ; -- Begin function _ZNSt3__121__libcpp_operator_newB8ne180100IJmEEEPvDpT_
	.globl	__ZNSt3__121__libcpp_operator_newB8ne180100IJmEEEPvDpT_
	.weak_definition	__ZNSt3__121__libcpp_operator_newB8ne180100IJmEEEPvDpT_
	.p2align	2
__ZNSt3__121__libcpp_operator_newB8ne180100IJmEEEPvDpT_: ; @_ZNSt3__121__libcpp_operator_newB8ne180100IJmEEEPvDpT_
	.cfi_startproc
; %bb.0:
	sub	sp, sp, #32
	stp	x29, x30, [sp, #16]             ; 16-byte Folded Spill
	add	x29, sp, #16
	.cfi_def_cfa w29, 16
	.cfi_offset w30, -8
	.cfi_offset w29, -16
	str	x0, [sp, #8]
	ldr	x0, [sp, #8]
	bl	__Znwm
	ldp	x29, x30, [sp, #16]             ; 16-byte Folded Reload
	add	sp, sp, #32
	ret
	.cfi_endproc
                                        ; -- End function
	.private_extern	__ZNSt3__117__compressed_pairIPfNS_9allocatorIfEEE6secondB8ne180100Ev ; -- Begin function _ZNSt3__117__compressed_pairIPfNS_9allocatorIfEEE6secondB8ne180100Ev
	.globl	__ZNSt3__117__compressed_pairIPfNS_9allocatorIfEEE6secondB8ne180100Ev
	.weak_definition	__ZNSt3__117__compressed_pairIPfNS_9allocatorIfEEE6secondB8ne180100Ev
	.p2align	2
__ZNSt3__117__compressed_pairIPfNS_9allocatorIfEEE6secondB8ne180100Ev: ; @_ZNSt3__117__compressed_pairIPfNS_9allocatorIfEEE6secondB8ne180100Ev
	.cfi_startproc
; %bb.0:
	sub	sp, sp, #32
	stp	x29, x30, [sp, #16]             ; 16-byte Folded Spill
	add	x29, sp, #16
	.cfi_def_cfa w29, 16
	.cfi_offset w30, -8
	.cfi_offset w29, -16
	str	x0, [sp, #8]
	ldr	x0, [sp, #8]
	bl	__ZNSt3__122__compressed_pair_elemINS_9allocatorIfEELi1ELb1EE5__getB8ne180100Ev
	ldp	x29, x30, [sp, #16]             ; 16-byte Folded Reload
	add	sp, sp, #32
	ret
	.cfi_endproc
                                        ; -- End function
	.private_extern	__ZNSt3__122__compressed_pair_elemINS_9allocatorIfEELi1ELb1EE5__getB8ne180100Ev ; -- Begin function _ZNSt3__122__compressed_pair_elemINS_9allocatorIfEELi1ELb1EE5__getB8ne180100Ev
	.globl	__ZNSt3__122__compressed_pair_elemINS_9allocatorIfEELi1ELb1EE5__getB8ne180100Ev
	.weak_definition	__ZNSt3__122__compressed_pair_elemINS_9allocatorIfEELi1ELb1EE5__getB8ne180100Ev
	.p2align	2
__ZNSt3__122__compressed_pair_elemINS_9allocatorIfEELi1ELb1EE5__getB8ne180100Ev: ; @_ZNSt3__122__compressed_pair_elemINS_9allocatorIfEELi1ELb1EE5__getB8ne180100Ev
	.cfi_startproc
; %bb.0:
	sub	sp, sp, #16
	.cfi_def_cfa_offset 16
	str	x0, [sp, #8]
	ldr	x0, [sp, #8]
	add	sp, sp, #16
	ret
	.cfi_endproc
                                        ; -- End function
	.private_extern	__ZNSt3__117__compressed_pairIPfNS_9allocatorIfEEE5firstB8ne180100Ev ; -- Begin function _ZNSt3__117__compressed_pairIPfNS_9allocatorIfEEE5firstB8ne180100Ev
	.globl	__ZNSt3__117__compressed_pairIPfNS_9allocatorIfEEE5firstB8ne180100Ev
	.weak_definition	__ZNSt3__117__compressed_pairIPfNS_9allocatorIfEEE5firstB8ne180100Ev
	.p2align	2
__ZNSt3__117__compressed_pairIPfNS_9allocatorIfEEE5firstB8ne180100Ev: ; @_ZNSt3__117__compressed_pairIPfNS_9allocatorIfEEE5firstB8ne180100Ev
	.cfi_startproc
; %bb.0:
	sub	sp, sp, #32
	stp	x29, x30, [sp, #16]             ; 16-byte Folded Spill
	add	x29, sp, #16
	.cfi_def_cfa w29, 16
	.cfi_offset w30, -8
	.cfi_offset w29, -16
	str	x0, [sp, #8]
	ldr	x0, [sp, #8]
	bl	__ZNSt3__122__compressed_pair_elemIPfLi0ELb0EE5__getB8ne180100Ev
	ldp	x29, x30, [sp, #16]             ; 16-byte Folded Reload
	add	sp, sp, #32
	ret
	.cfi_endproc
                                        ; -- End function
	.private_extern	__ZNSt3__122__compressed_pair_elemIPfLi0ELb0EE5__getB8ne180100Ev ; -- Begin function _ZNSt3__122__compressed_pair_elemIPfLi0ELb0EE5__getB8ne180100Ev
	.globl	__ZNSt3__122__compressed_pair_elemIPfLi0ELb0EE5__getB8ne180100Ev
	.weak_definition	__ZNSt3__122__compressed_pair_elemIPfLi0ELb0EE5__getB8ne180100Ev
	.p2align	2
__ZNSt3__122__compressed_pair_elemIPfLi0ELb0EE5__getB8ne180100Ev: ; @_ZNSt3__122__compressed_pair_elemIPfLi0ELb0EE5__getB8ne180100Ev
	.cfi_startproc
; %bb.0:
	sub	sp, sp, #16
	.cfi_def_cfa_offset 16
	str	x0, [sp, #8]
	ldr	x0, [sp, #8]
	add	sp, sp, #16
	ret
	.cfi_endproc
                                        ; -- End function
	.private_extern	__ZNSt3__16vectorIfNS_9allocatorIfEEE21_ConstructTransactionC1B8ne180100ERS3_m ; -- Begin function _ZNSt3__16vectorIfNS_9allocatorIfEEE21_ConstructTransactionC1B8ne180100ERS3_m
	.globl	__ZNSt3__16vectorIfNS_9allocatorIfEEE21_ConstructTransactionC1B8ne180100ERS3_m
	.weak_def_can_be_hidden	__ZNSt3__16vectorIfNS_9allocatorIfEEE21_ConstructTransactionC1B8ne180100ERS3_m
	.p2align	2
__ZNSt3__16vectorIfNS_9allocatorIfEEE21_ConstructTransactionC1B8ne180100ERS3_m: ; @_ZNSt3__16vectorIfNS_9allocatorIfEEE21_ConstructTransactionC1B8ne180100ERS3_m
	.cfi_startproc
; %bb.0:
	sub	sp, sp, #48
	stp	x29, x30, [sp, #32]             ; 16-byte Folded Spill
	add	x29, sp, #32
	.cfi_def_cfa w29, 16
	.cfi_offset w30, -8
	.cfi_offset w29, -16
	stur	x0, [x29, #-8]
	str	x1, [sp, #16]
	str	x2, [sp, #8]
	ldur	x0, [x29, #-8]
	str	x0, [sp]                        ; 8-byte Folded Spill
	ldr	x1, [sp, #16]
	ldr	x2, [sp, #8]
	bl	__ZNSt3__16vectorIfNS_9allocatorIfEEE21_ConstructTransactionC2B8ne180100ERS3_m
	ldr	x0, [sp]                        ; 8-byte Folded Reload
	ldp	x29, x30, [sp, #32]             ; 16-byte Folded Reload
	add	sp, sp, #48
	ret
	.cfi_endproc
                                        ; -- End function
	.globl	__ZNSt3__116allocator_traitsINS_9allocatorIfEEE9constructB8ne180100IfJEvEEvRS2_PT_DpOT0_ ; -- Begin function _ZNSt3__116allocator_traitsINS_9allocatorIfEEE9constructB8ne180100IfJEvEEvRS2_PT_DpOT0_
	.weak_definition	__ZNSt3__116allocator_traitsINS_9allocatorIfEEE9constructB8ne180100IfJEvEEvRS2_PT_DpOT0_
	.p2align	2
__ZNSt3__116allocator_traitsINS_9allocatorIfEEE9constructB8ne180100IfJEvEEvRS2_PT_DpOT0_: ; @_ZNSt3__116allocator_traitsINS_9allocatorIfEEE9constructB8ne180100IfJEvEEvRS2_PT_DpOT0_
	.cfi_startproc
; %bb.0:
	sub	sp, sp, #32
	stp	x29, x30, [sp, #16]             ; 16-byte Folded Spill
	add	x29, sp, #16
	.cfi_def_cfa w29, 16
	.cfi_offset w30, -8
	.cfi_offset w29, -16
	str	x0, [sp, #8]
	str	x1, [sp]
	ldr	x0, [sp, #8]
	ldr	x1, [sp]
	bl	__ZNSt3__19allocatorIfE9constructB8ne180100IfJEEEvPT_DpOT0_
	ldp	x29, x30, [sp, #16]             ; 16-byte Folded Reload
	add	sp, sp, #32
	ret
	.cfi_endproc
                                        ; -- End function
	.private_extern	__ZNSt3__112__to_addressB8ne180100IfEEPT_S2_ ; -- Begin function _ZNSt3__112__to_addressB8ne180100IfEEPT_S2_
	.globl	__ZNSt3__112__to_addressB8ne180100IfEEPT_S2_
	.weak_definition	__ZNSt3__112__to_addressB8ne180100IfEEPT_S2_
	.p2align	2
__ZNSt3__112__to_addressB8ne180100IfEEPT_S2_: ; @_ZNSt3__112__to_addressB8ne180100IfEEPT_S2_
	.cfi_startproc
; %bb.0:
	sub	sp, sp, #16
	.cfi_def_cfa_offset 16
	str	x0, [sp, #8]
	ldr	x0, [sp, #8]
	add	sp, sp, #16
	ret
	.cfi_endproc
                                        ; -- End function
	.private_extern	__ZNSt3__16vectorIfNS_9allocatorIfEEE21_ConstructTransactionD1B8ne180100Ev ; -- Begin function _ZNSt3__16vectorIfNS_9allocatorIfEEE21_ConstructTransactionD1B8ne180100Ev
	.globl	__ZNSt3__16vectorIfNS_9allocatorIfEEE21_ConstructTransactionD1B8ne180100Ev
	.weak_def_can_be_hidden	__ZNSt3__16vectorIfNS_9allocatorIfEEE21_ConstructTransactionD1B8ne180100Ev
	.p2align	2
__ZNSt3__16vectorIfNS_9allocatorIfEEE21_ConstructTransactionD1B8ne180100Ev: ; @_ZNSt3__16vectorIfNS_9allocatorIfEEE21_ConstructTransactionD1B8ne180100Ev
	.cfi_startproc
; %bb.0:
	sub	sp, sp, #32
	stp	x29, x30, [sp, #16]             ; 16-byte Folded Spill
	add	x29, sp, #16
	.cfi_def_cfa w29, 16
	.cfi_offset w30, -8
	.cfi_offset w29, -16
	str	x0, [sp, #8]
	ldr	x0, [sp, #8]
	str	x0, [sp]                        ; 8-byte Folded Spill
	bl	__ZNSt3__16vectorIfNS_9allocatorIfEEE21_ConstructTransactionD2B8ne180100Ev
	ldr	x0, [sp]                        ; 8-byte Folded Reload
	ldp	x29, x30, [sp, #16]             ; 16-byte Folded Reload
	add	sp, sp, #32
	ret
	.cfi_endproc
                                        ; -- End function
	.private_extern	__ZNSt3__16vectorIfNS_9allocatorIfEEE21_ConstructTransactionC2B8ne180100ERS3_m ; -- Begin function _ZNSt3__16vectorIfNS_9allocatorIfEEE21_ConstructTransactionC2B8ne180100ERS3_m
	.globl	__ZNSt3__16vectorIfNS_9allocatorIfEEE21_ConstructTransactionC2B8ne180100ERS3_m
	.weak_def_can_be_hidden	__ZNSt3__16vectorIfNS_9allocatorIfEEE21_ConstructTransactionC2B8ne180100ERS3_m
	.p2align	2
__ZNSt3__16vectorIfNS_9allocatorIfEEE21_ConstructTransactionC2B8ne180100ERS3_m: ; @_ZNSt3__16vectorIfNS_9allocatorIfEEE21_ConstructTransactionC2B8ne180100ERS3_m
	.cfi_startproc
; %bb.0:
	sub	sp, sp, #32
	.cfi_def_cfa_offset 32
	str	x0, [sp, #24]
	str	x1, [sp, #16]
	str	x2, [sp, #8]
	ldr	x0, [sp, #24]
	ldr	x8, [sp, #16]
	str	x8, [x0]
	ldr	x8, [sp, #16]
	ldr	x8, [x8, #8]
	str	x8, [x0, #8]
	ldr	x8, [sp, #16]
	ldr	x8, [x8, #8]
	ldr	x9, [sp, #8]
	add	x8, x8, x9, lsl #2
	str	x8, [x0, #16]
	add	sp, sp, #32
	ret
	.cfi_endproc
                                        ; -- End function
	.globl	__ZNSt3__19allocatorIfE9constructB8ne180100IfJEEEvPT_DpOT0_ ; -- Begin function _ZNSt3__19allocatorIfE9constructB8ne180100IfJEEEvPT_DpOT0_
	.weak_definition	__ZNSt3__19allocatorIfE9constructB8ne180100IfJEEEvPT_DpOT0_
	.p2align	2
__ZNSt3__19allocatorIfE9constructB8ne180100IfJEEEvPT_DpOT0_: ; @_ZNSt3__19allocatorIfE9constructB8ne180100IfJEEEvPT_DpOT0_
	.cfi_startproc
; %bb.0:
	sub	sp, sp, #16
	.cfi_def_cfa_offset 16
	str	x0, [sp, #8]
	str	x1, [sp]
	ldr	x8, [sp]
	movi	d0, #0000000000000000
	str	s0, [x8]
	add	sp, sp, #16
	ret
	.cfi_endproc
                                        ; -- End function
	.private_extern	__ZNSt3__16vectorIfNS_9allocatorIfEEE21_ConstructTransactionD2B8ne180100Ev ; -- Begin function _ZNSt3__16vectorIfNS_9allocatorIfEEE21_ConstructTransactionD2B8ne180100Ev
	.globl	__ZNSt3__16vectorIfNS_9allocatorIfEEE21_ConstructTransactionD2B8ne180100Ev
	.weak_def_can_be_hidden	__ZNSt3__16vectorIfNS_9allocatorIfEEE21_ConstructTransactionD2B8ne180100Ev
	.p2align	2
__ZNSt3__16vectorIfNS_9allocatorIfEEE21_ConstructTransactionD2B8ne180100Ev: ; @_ZNSt3__16vectorIfNS_9allocatorIfEEE21_ConstructTransactionD2B8ne180100Ev
	.cfi_startproc
; %bb.0:
	sub	sp, sp, #16
	.cfi_def_cfa_offset 16
	str	x0, [sp, #8]
	ldr	x0, [sp, #8]
	ldr	x8, [x0, #8]
	ldr	x9, [x0]
	str	x8, [x9, #8]
	add	sp, sp, #16
	ret
	.cfi_endproc
                                        ; -- End function
	.private_extern	__ZNSt3__128__exception_guard_exceptionsINS_6vectorIfNS_9allocatorIfEEE16__destroy_vectorEED2B8ne180100Ev ; -- Begin function _ZNSt3__128__exception_guard_exceptionsINS_6vectorIfNS_9allocatorIfEEE16__destroy_vectorEED2B8ne180100Ev
	.globl	__ZNSt3__128__exception_guard_exceptionsINS_6vectorIfNS_9allocatorIfEEE16__destroy_vectorEED2B8ne180100Ev
	.weak_def_can_be_hidden	__ZNSt3__128__exception_guard_exceptionsINS_6vectorIfNS_9allocatorIfEEE16__destroy_vectorEED2B8ne180100Ev
	.p2align	2
__ZNSt3__128__exception_guard_exceptionsINS_6vectorIfNS_9allocatorIfEEE16__destroy_vectorEED2B8ne180100Ev: ; @_ZNSt3__128__exception_guard_exceptionsINS_6vectorIfNS_9allocatorIfEEE16__destroy_vectorEED2B8ne180100Ev
Lfunc_begin7:
	.cfi_startproc
	.cfi_personality 155, ___gxx_personality_v0
	.cfi_lsda 16, Lexception7
; %bb.0:
	sub	sp, sp, #48
	stp	x29, x30, [sp, #32]             ; 16-byte Folded Spill
	add	x29, sp, #32
	.cfi_def_cfa w29, 16
	.cfi_offset w30, -8
	.cfi_offset w29, -16
	str	x0, [sp, #16]
	ldr	x8, [sp, #16]
	str	x8, [sp, #8]                    ; 8-byte Folded Spill
	mov	x9, x8
	stur	x9, [x29, #-8]
	ldrb	w8, [x8, #8]
	tbnz	w8, #0, LBB86_3
	b	LBB86_1
LBB86_1:
Ltmp59:
	ldr	x0, [sp, #8]                    ; 8-byte Folded Reload
	bl	__ZNSt3__16vectorIfNS_9allocatorIfEEE16__destroy_vectorclB8ne180100Ev
Ltmp60:
	b	LBB86_2
LBB86_2:
	b	LBB86_3
LBB86_3:
	ldur	x0, [x29, #-8]
	ldp	x29, x30, [sp, #32]             ; 16-byte Folded Reload
	add	sp, sp, #48
	ret
LBB86_4:
Ltmp61:
	bl	___clang_call_terminate
Lfunc_end7:
	.cfi_endproc
	.section	__TEXT,__gcc_except_tab
	.p2align	2, 0x0
GCC_except_table86:
Lexception7:
	.byte	255                             ; @LPStart Encoding = omit
	.byte	155                             ; @TType Encoding = indirect pcrel sdata4
	.uleb128 Lttbase2-Lttbaseref2
Lttbaseref2:
	.byte	1                               ; Call site Encoding = uleb128
	.uleb128 Lcst_end7-Lcst_begin7
Lcst_begin7:
	.uleb128 Ltmp59-Lfunc_begin7            ; >> Call Site 1 <<
	.uleb128 Ltmp60-Ltmp59                  ;   Call between Ltmp59 and Ltmp60
	.uleb128 Ltmp61-Lfunc_begin7            ;     jumps to Ltmp61
	.byte	1                               ;   On action: 1
Lcst_end7:
	.byte	1                               ; >> Action Record 1 <<
                                        ;   Catch TypeInfo 1
	.byte	0                               ;   No further actions
	.p2align	2, 0x0
                                        ; >> Catch TypeInfos <<
	.long	0                               ; TypeInfo 1
Lttbase2:
	.p2align	2, 0x0
                                        ; -- End function
	.section	__TEXT,__text,regular,pure_instructions
	.private_extern	__ZNSt3__16vectorIfNS_9allocatorIfEEE16__destroy_vectorclB8ne180100Ev ; -- Begin function _ZNSt3__16vectorIfNS_9allocatorIfEEE16__destroy_vectorclB8ne180100Ev
	.globl	__ZNSt3__16vectorIfNS_9allocatorIfEEE16__destroy_vectorclB8ne180100Ev
	.weak_definition	__ZNSt3__16vectorIfNS_9allocatorIfEEE16__destroy_vectorclB8ne180100Ev
	.p2align	2
__ZNSt3__16vectorIfNS_9allocatorIfEEE16__destroy_vectorclB8ne180100Ev: ; @_ZNSt3__16vectorIfNS_9allocatorIfEEE16__destroy_vectorclB8ne180100Ev
	.cfi_startproc
; %bb.0:
	sub	sp, sp, #48
	stp	x29, x30, [sp, #32]             ; 16-byte Folded Spill
	add	x29, sp, #32
	.cfi_def_cfa w29, 16
	.cfi_offset w30, -8
	.cfi_offset w29, -16
	stur	x0, [x29, #-8]
	ldur	x8, [x29, #-8]
	str	x8, [sp, #16]                   ; 8-byte Folded Spill
	ldr	x8, [x8]
	ldr	x8, [x8]
	subs	x8, x8, #0
	cset	w8, eq
	tbnz	w8, #0, LBB87_2
	b	LBB87_1
LBB87_1:
	ldr	x8, [sp, #16]                   ; 8-byte Folded Reload
	ldr	x0, [x8]
	bl	__ZNSt3__16vectorIfNS_9allocatorIfEEE7__clearB8ne180100Ev
	ldr	x8, [sp, #16]                   ; 8-byte Folded Reload
	ldr	x0, [x8]
	bl	__ZNKSt3__16vectorIfNS_9allocatorIfEEE17__annotate_deleteB8ne180100Ev
	ldr	x8, [sp, #16]                   ; 8-byte Folded Reload
	ldr	x0, [x8]
	bl	__ZNSt3__16vectorIfNS_9allocatorIfEEE7__allocB8ne180100Ev
	ldr	x8, [sp, #16]                   ; 8-byte Folded Reload
	str	x0, [sp, #8]                    ; 8-byte Folded Spill
	ldr	x9, [x8]
	ldr	x9, [x9]
	str	x9, [sp]                        ; 8-byte Folded Spill
	ldr	x0, [x8]
	bl	__ZNKSt3__16vectorIfNS_9allocatorIfEEE8capacityB8ne180100Ev
	ldr	x1, [sp]                        ; 8-byte Folded Reload
	mov	x2, x0
	ldr	x0, [sp, #8]                    ; 8-byte Folded Reload
	bl	__ZNSt3__116allocator_traitsINS_9allocatorIfEEE10deallocateB8ne180100ERS2_Pfm
	b	LBB87_2
LBB87_2:
	ldp	x29, x30, [sp, #32]             ; 16-byte Folded Reload
	add	sp, sp, #48
	ret
	.cfi_endproc
                                        ; -- End function
	.private_extern	__ZNSt3__16vectorIfNS_9allocatorIfEEE7__clearB8ne180100Ev ; -- Begin function _ZNSt3__16vectorIfNS_9allocatorIfEEE7__clearB8ne180100Ev
	.globl	__ZNSt3__16vectorIfNS_9allocatorIfEEE7__clearB8ne180100Ev
	.weak_definition	__ZNSt3__16vectorIfNS_9allocatorIfEEE7__clearB8ne180100Ev
	.p2align	2
__ZNSt3__16vectorIfNS_9allocatorIfEEE7__clearB8ne180100Ev: ; @_ZNSt3__16vectorIfNS_9allocatorIfEEE7__clearB8ne180100Ev
	.cfi_startproc
; %bb.0:
	sub	sp, sp, #32
	stp	x29, x30, [sp, #16]             ; 16-byte Folded Spill
	add	x29, sp, #16
	.cfi_def_cfa w29, 16
	.cfi_offset w30, -8
	.cfi_offset w29, -16
	str	x0, [sp, #8]
	ldr	x0, [sp, #8]
	ldr	x1, [x0]
	bl	__ZNSt3__16vectorIfNS_9allocatorIfEEE22__base_destruct_at_endB8ne180100EPf
	ldp	x29, x30, [sp, #16]             ; 16-byte Folded Reload
	add	sp, sp, #32
	ret
	.cfi_endproc
                                        ; -- End function
	.private_extern	__ZNKSt3__16vectorIfNS_9allocatorIfEEE17__annotate_deleteB8ne180100Ev ; -- Begin function _ZNKSt3__16vectorIfNS_9allocatorIfEEE17__annotate_deleteB8ne180100Ev
	.globl	__ZNKSt3__16vectorIfNS_9allocatorIfEEE17__annotate_deleteB8ne180100Ev
	.weak_definition	__ZNKSt3__16vectorIfNS_9allocatorIfEEE17__annotate_deleteB8ne180100Ev
	.p2align	2
__ZNKSt3__16vectorIfNS_9allocatorIfEEE17__annotate_deleteB8ne180100Ev: ; @_ZNKSt3__16vectorIfNS_9allocatorIfEEE17__annotate_deleteB8ne180100Ev
	.cfi_startproc
; %bb.0:
	sub	sp, sp, #16
	.cfi_def_cfa_offset 16
	str	x0, [sp, #8]
	add	sp, sp, #16
	ret
	.cfi_endproc
                                        ; -- End function
	.private_extern	__ZNSt3__116allocator_traitsINS_9allocatorIfEEE10deallocateB8ne180100ERS2_Pfm ; -- Begin function _ZNSt3__116allocator_traitsINS_9allocatorIfEEE10deallocateB8ne180100ERS2_Pfm
	.globl	__ZNSt3__116allocator_traitsINS_9allocatorIfEEE10deallocateB8ne180100ERS2_Pfm
	.weak_definition	__ZNSt3__116allocator_traitsINS_9allocatorIfEEE10deallocateB8ne180100ERS2_Pfm
	.p2align	2
__ZNSt3__116allocator_traitsINS_9allocatorIfEEE10deallocateB8ne180100ERS2_Pfm: ; @_ZNSt3__116allocator_traitsINS_9allocatorIfEEE10deallocateB8ne180100ERS2_Pfm
	.cfi_startproc
; %bb.0:
	sub	sp, sp, #48
	stp	x29, x30, [sp, #32]             ; 16-byte Folded Spill
	add	x29, sp, #32
	.cfi_def_cfa w29, 16
	.cfi_offset w30, -8
	.cfi_offset w29, -16
	stur	x0, [x29, #-8]
	str	x1, [sp, #16]
	str	x2, [sp, #8]
	ldur	x0, [x29, #-8]
	ldr	x1, [sp, #16]
	ldr	x2, [sp, #8]
	bl	__ZNSt3__19allocatorIfE10deallocateB8ne180100EPfm
	ldp	x29, x30, [sp, #32]             ; 16-byte Folded Reload
	add	sp, sp, #48
	ret
	.cfi_endproc
                                        ; -- End function
	.private_extern	__ZNKSt3__16vectorIfNS_9allocatorIfEEE8capacityB8ne180100Ev ; -- Begin function _ZNKSt3__16vectorIfNS_9allocatorIfEEE8capacityB8ne180100Ev
	.globl	__ZNKSt3__16vectorIfNS_9allocatorIfEEE8capacityB8ne180100Ev
	.weak_definition	__ZNKSt3__16vectorIfNS_9allocatorIfEEE8capacityB8ne180100Ev
	.p2align	2
__ZNKSt3__16vectorIfNS_9allocatorIfEEE8capacityB8ne180100Ev: ; @_ZNKSt3__16vectorIfNS_9allocatorIfEEE8capacityB8ne180100Ev
	.cfi_startproc
; %bb.0:
	sub	sp, sp, #32
	stp	x29, x30, [sp, #16]             ; 16-byte Folded Spill
	add	x29, sp, #16
	.cfi_def_cfa w29, 16
	.cfi_offset w30, -8
	.cfi_offset w29, -16
	str	x0, [sp, #8]
	ldr	x0, [sp, #8]
	str	x0, [sp]                        ; 8-byte Folded Spill
	bl	__ZNKSt3__16vectorIfNS_9allocatorIfEEE9__end_capB8ne180100Ev
	ldr	x9, [sp]                        ; 8-byte Folded Reload
	ldr	x8, [x0]
	ldr	x9, [x9]
	subs	x8, x8, x9
	mov	x9, #4                          ; =0x4
	sdiv	x0, x8, x9
	ldp	x29, x30, [sp, #16]             ; 16-byte Folded Reload
	add	sp, sp, #32
	ret
	.cfi_endproc
                                        ; -- End function
	.private_extern	__ZNSt3__16vectorIfNS_9allocatorIfEEE22__base_destruct_at_endB8ne180100EPf ; -- Begin function _ZNSt3__16vectorIfNS_9allocatorIfEEE22__base_destruct_at_endB8ne180100EPf
	.globl	__ZNSt3__16vectorIfNS_9allocatorIfEEE22__base_destruct_at_endB8ne180100EPf
	.weak_definition	__ZNSt3__16vectorIfNS_9allocatorIfEEE22__base_destruct_at_endB8ne180100EPf
	.p2align	2
__ZNSt3__16vectorIfNS_9allocatorIfEEE22__base_destruct_at_endB8ne180100EPf: ; @_ZNSt3__16vectorIfNS_9allocatorIfEEE22__base_destruct_at_endB8ne180100EPf
Lfunc_begin8:
	.cfi_startproc
	.cfi_personality 155, ___gxx_personality_v0
	.cfi_lsda 16, Lexception8
; %bb.0:
	sub	sp, sp, #64
	stp	x29, x30, [sp, #48]             ; 16-byte Folded Spill
	add	x29, sp, #48
	.cfi_def_cfa w29, 16
	.cfi_offset w30, -8
	.cfi_offset w29, -16
	stur	x0, [x29, #-8]
	stur	x1, [x29, #-16]
	ldur	x8, [x29, #-8]
	str	x8, [sp, #16]                   ; 8-byte Folded Spill
	ldr	x8, [x8, #8]
	str	x8, [sp, #24]
	b	LBB92_1
LBB92_1:                                ; =>This Inner Loop Header: Depth=1
	ldur	x8, [x29, #-16]
	ldr	x9, [sp, #24]
	subs	x8, x8, x9
	cset	w8, eq
	tbnz	w8, #0, LBB92_4
	b	LBB92_2
LBB92_2:                                ;   in Loop: Header=BB92_1 Depth=1
	ldr	x0, [sp, #16]                   ; 8-byte Folded Reload
	bl	__ZNSt3__16vectorIfNS_9allocatorIfEEE7__allocB8ne180100Ev
	str	x0, [sp, #8]                    ; 8-byte Folded Spill
	ldr	x8, [sp, #24]
	subs	x0, x8, #4
	str	x0, [sp, #24]
	bl	__ZNSt3__112__to_addressB8ne180100IfEEPT_S2_
	mov	x1, x0
	ldr	x0, [sp, #8]                    ; 8-byte Folded Reload
Ltmp63:
	bl	__ZNSt3__116allocator_traitsINS_9allocatorIfEEE7destroyB8ne180100IfvEEvRS2_PT_
Ltmp64:
	b	LBB92_3
LBB92_3:                                ;   in Loop: Header=BB92_1 Depth=1
	b	LBB92_1
LBB92_4:
	ldr	x9, [sp, #16]                   ; 8-byte Folded Reload
	ldur	x8, [x29, #-16]
	str	x8, [x9, #8]
	ldp	x29, x30, [sp, #48]             ; 16-byte Folded Reload
	add	sp, sp, #64
	ret
LBB92_5:
Ltmp65:
	bl	___clang_call_terminate
Lfunc_end8:
	.cfi_endproc
	.section	__TEXT,__gcc_except_tab
	.p2align	2, 0x0
GCC_except_table92:
Lexception8:
	.byte	255                             ; @LPStart Encoding = omit
	.byte	155                             ; @TType Encoding = indirect pcrel sdata4
	.uleb128 Lttbase3-Lttbaseref3
Lttbaseref3:
	.byte	1                               ; Call site Encoding = uleb128
	.uleb128 Lcst_end8-Lcst_begin8
Lcst_begin8:
	.uleb128 Ltmp63-Lfunc_begin8            ; >> Call Site 1 <<
	.uleb128 Ltmp64-Ltmp63                  ;   Call between Ltmp63 and Ltmp64
	.uleb128 Ltmp65-Lfunc_begin8            ;     jumps to Ltmp65
	.byte	1                               ;   On action: 1
Lcst_end8:
	.byte	1                               ; >> Action Record 1 <<
                                        ;   Catch TypeInfo 1
	.byte	0                               ;   No further actions
	.p2align	2, 0x0
                                        ; >> Catch TypeInfos <<
	.long	0                               ; TypeInfo 1
Lttbase3:
	.p2align	2, 0x0
                                        ; -- End function
	.section	__TEXT,__text,regular,pure_instructions
	.globl	__ZNSt3__116allocator_traitsINS_9allocatorIfEEE7destroyB8ne180100IfvEEvRS2_PT_ ; -- Begin function _ZNSt3__116allocator_traitsINS_9allocatorIfEEE7destroyB8ne180100IfvEEvRS2_PT_
	.weak_definition	__ZNSt3__116allocator_traitsINS_9allocatorIfEEE7destroyB8ne180100IfvEEvRS2_PT_
	.p2align	2
__ZNSt3__116allocator_traitsINS_9allocatorIfEEE7destroyB8ne180100IfvEEvRS2_PT_: ; @_ZNSt3__116allocator_traitsINS_9allocatorIfEEE7destroyB8ne180100IfvEEvRS2_PT_
	.cfi_startproc
; %bb.0:
	sub	sp, sp, #32
	stp	x29, x30, [sp, #16]             ; 16-byte Folded Spill
	add	x29, sp, #16
	.cfi_def_cfa w29, 16
	.cfi_offset w30, -8
	.cfi_offset w29, -16
	str	x0, [sp, #8]
	str	x1, [sp]
	ldr	x0, [sp, #8]
	ldr	x1, [sp]
	bl	__ZNSt3__19allocatorIfE7destroyB8ne180100EPf
	ldp	x29, x30, [sp, #16]             ; 16-byte Folded Reload
	add	sp, sp, #32
	ret
	.cfi_endproc
                                        ; -- End function
	.private_extern	__ZNSt3__19allocatorIfE7destroyB8ne180100EPf ; -- Begin function _ZNSt3__19allocatorIfE7destroyB8ne180100EPf
	.globl	__ZNSt3__19allocatorIfE7destroyB8ne180100EPf
	.weak_definition	__ZNSt3__19allocatorIfE7destroyB8ne180100EPf
	.p2align	2
__ZNSt3__19allocatorIfE7destroyB8ne180100EPf: ; @_ZNSt3__19allocatorIfE7destroyB8ne180100EPf
	.cfi_startproc
; %bb.0:
	sub	sp, sp, #16
	.cfi_def_cfa_offset 16
	str	x0, [sp, #8]
	str	x1, [sp]
	add	sp, sp, #16
	ret
	.cfi_endproc
                                        ; -- End function
	.private_extern	__ZNSt3__19allocatorIfE10deallocateB8ne180100EPfm ; -- Begin function _ZNSt3__19allocatorIfE10deallocateB8ne180100EPfm
	.globl	__ZNSt3__19allocatorIfE10deallocateB8ne180100EPfm
	.weak_definition	__ZNSt3__19allocatorIfE10deallocateB8ne180100EPfm
	.p2align	2
__ZNSt3__19allocatorIfE10deallocateB8ne180100EPfm: ; @_ZNSt3__19allocatorIfE10deallocateB8ne180100EPfm
Lfunc_begin9:
	.cfi_startproc
	.cfi_personality 155, ___gxx_personality_v0
	.cfi_lsda 16, Lexception9
; %bb.0:
	sub	sp, sp, #48
	stp	x29, x30, [sp, #32]             ; 16-byte Folded Spill
	add	x29, sp, #32
	.cfi_def_cfa w29, 16
	.cfi_offset w30, -8
	.cfi_offset w29, -16
	stur	x0, [x29, #-8]
	str	x1, [sp, #16]
	str	x2, [sp, #8]
	ldr	x0, [sp, #16]
	ldr	x8, [sp, #8]
	lsl	x1, x8, #2
Ltmp67:
	mov	x2, #4                          ; =0x4
	bl	__ZNSt3__119__libcpp_deallocateB8ne180100EPvmm
Ltmp68:
	b	LBB95_1
LBB95_1:
	ldp	x29, x30, [sp, #32]             ; 16-byte Folded Reload
	add	sp, sp, #48
	ret
LBB95_2:
Ltmp69:
	bl	___clang_call_terminate
Lfunc_end9:
	.cfi_endproc
	.section	__TEXT,__gcc_except_tab
	.p2align	2, 0x0
GCC_except_table95:
Lexception9:
	.byte	255                             ; @LPStart Encoding = omit
	.byte	155                             ; @TType Encoding = indirect pcrel sdata4
	.uleb128 Lttbase4-Lttbaseref4
Lttbaseref4:
	.byte	1                               ; Call site Encoding = uleb128
	.uleb128 Lcst_end9-Lcst_begin9
Lcst_begin9:
	.uleb128 Ltmp67-Lfunc_begin9            ; >> Call Site 1 <<
	.uleb128 Ltmp68-Ltmp67                  ;   Call between Ltmp67 and Ltmp68
	.uleb128 Ltmp69-Lfunc_begin9            ;     jumps to Ltmp69
	.byte	1                               ;   On action: 1
Lcst_end9:
	.byte	1                               ; >> Action Record 1 <<
                                        ;   Catch TypeInfo 1
	.byte	0                               ;   No further actions
	.p2align	2, 0x0
                                        ; >> Catch TypeInfos <<
	.long	0                               ; TypeInfo 1
Lttbase4:
	.p2align	2, 0x0
                                        ; -- End function
	.section	__TEXT,__text,regular,pure_instructions
	.private_extern	__ZNSt3__119__libcpp_deallocateB8ne180100EPvmm ; -- Begin function _ZNSt3__119__libcpp_deallocateB8ne180100EPvmm
	.globl	__ZNSt3__119__libcpp_deallocateB8ne180100EPvmm
	.weak_definition	__ZNSt3__119__libcpp_deallocateB8ne180100EPvmm
	.p2align	2
__ZNSt3__119__libcpp_deallocateB8ne180100EPvmm: ; @_ZNSt3__119__libcpp_deallocateB8ne180100EPvmm
	.cfi_startproc
; %bb.0:
	sub	sp, sp, #48
	stp	x29, x30, [sp, #32]             ; 16-byte Folded Spill
	add	x29, sp, #32
	.cfi_def_cfa w29, 16
	.cfi_offset w30, -8
	.cfi_offset w29, -16
	stur	x0, [x29, #-8]
	str	x1, [sp, #16]
	str	x2, [sp, #8]
	ldr	x0, [sp, #8]
	bl	__ZNSt3__124__is_overaligned_for_newB8ne180100Em
	tbz	w0, #0, LBB96_2
	b	LBB96_1
LBB96_1:
	ldr	x8, [sp, #8]
	str	x8, [sp]
	ldur	x0, [x29, #-8]
	ldr	x1, [sp, #16]
	ldr	x2, [sp]
	bl	__ZNSt3__127__do_deallocate_handle_sizeB8ne180100IJSt11align_val_tEEEvPvmDpT_
	b	LBB96_3
LBB96_2:
	ldur	x0, [x29, #-8]
	ldr	x1, [sp, #16]
	bl	__ZNSt3__127__do_deallocate_handle_sizeB8ne180100IJEEEvPvmDpT_
	b	LBB96_3
LBB96_3:
	ldp	x29, x30, [sp, #32]             ; 16-byte Folded Reload
	add	sp, sp, #48
	ret
	.cfi_endproc
                                        ; -- End function
	.private_extern	__ZNSt3__127__do_deallocate_handle_sizeB8ne180100IJSt11align_val_tEEEvPvmDpT_ ; -- Begin function _ZNSt3__127__do_deallocate_handle_sizeB8ne180100IJSt11align_val_tEEEvPvmDpT_
	.globl	__ZNSt3__127__do_deallocate_handle_sizeB8ne180100IJSt11align_val_tEEEvPvmDpT_
	.weak_definition	__ZNSt3__127__do_deallocate_handle_sizeB8ne180100IJSt11align_val_tEEEvPvmDpT_
	.p2align	2
__ZNSt3__127__do_deallocate_handle_sizeB8ne180100IJSt11align_val_tEEEvPvmDpT_: ; @_ZNSt3__127__do_deallocate_handle_sizeB8ne180100IJSt11align_val_tEEEvPvmDpT_
	.cfi_startproc
; %bb.0:
	sub	sp, sp, #48
	stp	x29, x30, [sp, #32]             ; 16-byte Folded Spill
	add	x29, sp, #32
	.cfi_def_cfa w29, 16
	.cfi_offset w30, -8
	.cfi_offset w29, -16
	stur	x0, [x29, #-8]
	str	x1, [sp, #16]
	str	x2, [sp, #8]
	ldur	x0, [x29, #-8]
	ldr	x1, [sp, #8]
	bl	__ZNSt3__124__libcpp_operator_deleteB8ne180100IJPvSt11align_val_tEEEvDpT_
	ldp	x29, x30, [sp, #32]             ; 16-byte Folded Reload
	add	sp, sp, #48
	ret
	.cfi_endproc
                                        ; -- End function
	.private_extern	__ZNSt3__127__do_deallocate_handle_sizeB8ne180100IJEEEvPvmDpT_ ; -- Begin function _ZNSt3__127__do_deallocate_handle_sizeB8ne180100IJEEEvPvmDpT_
	.globl	__ZNSt3__127__do_deallocate_handle_sizeB8ne180100IJEEEvPvmDpT_
	.weak_definition	__ZNSt3__127__do_deallocate_handle_sizeB8ne180100IJEEEvPvmDpT_
	.p2align	2
__ZNSt3__127__do_deallocate_handle_sizeB8ne180100IJEEEvPvmDpT_: ; @_ZNSt3__127__do_deallocate_handle_sizeB8ne180100IJEEEvPvmDpT_
	.cfi_startproc
; %bb.0:
	sub	sp, sp, #32
	stp	x29, x30, [sp, #16]             ; 16-byte Folded Spill
	add	x29, sp, #16
	.cfi_def_cfa w29, 16
	.cfi_offset w30, -8
	.cfi_offset w29, -16
	str	x0, [sp, #8]
	str	x1, [sp]
	ldr	x0, [sp, #8]
	bl	__ZNSt3__124__libcpp_operator_deleteB8ne180100IJPvEEEvDpT_
	ldp	x29, x30, [sp, #16]             ; 16-byte Folded Reload
	add	sp, sp, #32
	ret
	.cfi_endproc
                                        ; -- End function
	.private_extern	__ZNSt3__124__libcpp_operator_deleteB8ne180100IJPvSt11align_val_tEEEvDpT_ ; -- Begin function _ZNSt3__124__libcpp_operator_deleteB8ne180100IJPvSt11align_val_tEEEvDpT_
	.globl	__ZNSt3__124__libcpp_operator_deleteB8ne180100IJPvSt11align_val_tEEEvDpT_
	.weak_definition	__ZNSt3__124__libcpp_operator_deleteB8ne180100IJPvSt11align_val_tEEEvDpT_
	.p2align	2
__ZNSt3__124__libcpp_operator_deleteB8ne180100IJPvSt11align_val_tEEEvDpT_: ; @_ZNSt3__124__libcpp_operator_deleteB8ne180100IJPvSt11align_val_tEEEvDpT_
	.cfi_startproc
; %bb.0:
	sub	sp, sp, #32
	stp	x29, x30, [sp, #16]             ; 16-byte Folded Spill
	add	x29, sp, #16
	.cfi_def_cfa w29, 16
	.cfi_offset w30, -8
	.cfi_offset w29, -16
	str	x0, [sp, #8]
	str	x1, [sp]
	ldr	x0, [sp, #8]
	ldr	x1, [sp]
	bl	__ZdlPvSt11align_val_t
	ldp	x29, x30, [sp, #16]             ; 16-byte Folded Reload
	add	sp, sp, #32
	ret
	.cfi_endproc
                                        ; -- End function
	.private_extern	__ZNSt3__124__libcpp_operator_deleteB8ne180100IJPvEEEvDpT_ ; -- Begin function _ZNSt3__124__libcpp_operator_deleteB8ne180100IJPvEEEvDpT_
	.globl	__ZNSt3__124__libcpp_operator_deleteB8ne180100IJPvEEEvDpT_
	.weak_definition	__ZNSt3__124__libcpp_operator_deleteB8ne180100IJPvEEEvDpT_
	.p2align	2
__ZNSt3__124__libcpp_operator_deleteB8ne180100IJPvEEEvDpT_: ; @_ZNSt3__124__libcpp_operator_deleteB8ne180100IJPvEEEvDpT_
	.cfi_startproc
; %bb.0:
	sub	sp, sp, #32
	stp	x29, x30, [sp, #16]             ; 16-byte Folded Spill
	add	x29, sp, #16
	.cfi_def_cfa w29, 16
	.cfi_offset w30, -8
	.cfi_offset w29, -16
	str	x0, [sp, #8]
	ldr	x0, [sp, #8]
	bl	__ZdlPv
	ldp	x29, x30, [sp, #16]             ; 16-byte Folded Reload
	add	sp, sp, #32
	ret
	.cfi_endproc
                                        ; -- End function
	.private_extern	__ZNKSt3__16vectorIfNS_9allocatorIfEEE9__end_capB8ne180100Ev ; -- Begin function _ZNKSt3__16vectorIfNS_9allocatorIfEEE9__end_capB8ne180100Ev
	.globl	__ZNKSt3__16vectorIfNS_9allocatorIfEEE9__end_capB8ne180100Ev
	.weak_definition	__ZNKSt3__16vectorIfNS_9allocatorIfEEE9__end_capB8ne180100Ev
	.p2align	2
__ZNKSt3__16vectorIfNS_9allocatorIfEEE9__end_capB8ne180100Ev: ; @_ZNKSt3__16vectorIfNS_9allocatorIfEEE9__end_capB8ne180100Ev
	.cfi_startproc
; %bb.0:
	sub	sp, sp, #32
	stp	x29, x30, [sp, #16]             ; 16-byte Folded Spill
	add	x29, sp, #16
	.cfi_def_cfa w29, 16
	.cfi_offset w30, -8
	.cfi_offset w29, -16
	str	x0, [sp, #8]
	ldr	x8, [sp, #8]
	add	x0, x8, #16
	bl	__ZNKSt3__117__compressed_pairIPfNS_9allocatorIfEEE5firstB8ne180100Ev
	ldp	x29, x30, [sp, #16]             ; 16-byte Folded Reload
	add	sp, sp, #32
	ret
	.cfi_endproc
                                        ; -- End function
	.private_extern	__ZNKSt3__117__compressed_pairIPfNS_9allocatorIfEEE5firstB8ne180100Ev ; -- Begin function _ZNKSt3__117__compressed_pairIPfNS_9allocatorIfEEE5firstB8ne180100Ev
	.globl	__ZNKSt3__117__compressed_pairIPfNS_9allocatorIfEEE5firstB8ne180100Ev
	.weak_definition	__ZNKSt3__117__compressed_pairIPfNS_9allocatorIfEEE5firstB8ne180100Ev
	.p2align	2
__ZNKSt3__117__compressed_pairIPfNS_9allocatorIfEEE5firstB8ne180100Ev: ; @_ZNKSt3__117__compressed_pairIPfNS_9allocatorIfEEE5firstB8ne180100Ev
	.cfi_startproc
; %bb.0:
	sub	sp, sp, #32
	stp	x29, x30, [sp, #16]             ; 16-byte Folded Spill
	add	x29, sp, #16
	.cfi_def_cfa w29, 16
	.cfi_offset w30, -8
	.cfi_offset w29, -16
	str	x0, [sp, #8]
	ldr	x0, [sp, #8]
	bl	__ZNKSt3__122__compressed_pair_elemIPfLi0ELb0EE5__getB8ne180100Ev
	ldp	x29, x30, [sp, #16]             ; 16-byte Folded Reload
	add	sp, sp, #32
	ret
	.cfi_endproc
                                        ; -- End function
	.private_extern	__ZNKSt3__122__compressed_pair_elemIPfLi0ELb0EE5__getB8ne180100Ev ; -- Begin function _ZNKSt3__122__compressed_pair_elemIPfLi0ELb0EE5__getB8ne180100Ev
	.globl	__ZNKSt3__122__compressed_pair_elemIPfLi0ELb0EE5__getB8ne180100Ev
	.weak_definition	__ZNKSt3__122__compressed_pair_elemIPfLi0ELb0EE5__getB8ne180100Ev
	.p2align	2
__ZNKSt3__122__compressed_pair_elemIPfLi0ELb0EE5__getB8ne180100Ev: ; @_ZNKSt3__122__compressed_pair_elemIPfLi0ELb0EE5__getB8ne180100Ev
	.cfi_startproc
; %bb.0:
	sub	sp, sp, #16
	.cfi_def_cfa_offset 16
	str	x0, [sp, #8]
	ldr	x0, [sp, #8]
	add	sp, sp, #16
	ret
	.cfi_endproc
                                        ; -- End function
	.private_extern	__ZNSt3__16vectorIfNS_9allocatorIfEEED2B8ne180100Ev ; -- Begin function _ZNSt3__16vectorIfNS_9allocatorIfEEED2B8ne180100Ev
	.globl	__ZNSt3__16vectorIfNS_9allocatorIfEEED2B8ne180100Ev
	.weak_def_can_be_hidden	__ZNSt3__16vectorIfNS_9allocatorIfEEED2B8ne180100Ev
	.p2align	2
__ZNSt3__16vectorIfNS_9allocatorIfEEED2B8ne180100Ev: ; @_ZNSt3__16vectorIfNS_9allocatorIfEEED2B8ne180100Ev
Lfunc_begin10:
	.cfi_startproc
	.cfi_personality 155, ___gxx_personality_v0
	.cfi_lsda 16, Lexception10
; %bb.0:
	sub	sp, sp, #48
	stp	x29, x30, [sp, #32]             ; 16-byte Folded Spill
	add	x29, sp, #32
	.cfi_def_cfa w29, 16
	.cfi_offset w30, -8
	.cfi_offset w29, -16
	stur	x0, [x29, #-8]
	ldur	x1, [x29, #-8]
	str	x1, [sp, #8]                    ; 8-byte Folded Spill
Ltmp71:
	add	x0, sp, #16
	bl	__ZNSt3__16vectorIfNS_9allocatorIfEEE16__destroy_vectorC1B8ne180100ERS3_
Ltmp72:
	b	LBB104_1
LBB104_1:
	add	x0, sp, #16
	bl	__ZNSt3__16vectorIfNS_9allocatorIfEEE16__destroy_vectorclB8ne180100Ev
	ldr	x0, [sp, #8]                    ; 8-byte Folded Reload
	ldp	x29, x30, [sp, #32]             ; 16-byte Folded Reload
	add	sp, sp, #48
	ret
LBB104_2:
Ltmp73:
	bl	___clang_call_terminate
Lfunc_end10:
	.cfi_endproc
	.section	__TEXT,__gcc_except_tab
	.p2align	2, 0x0
GCC_except_table104:
Lexception10:
	.byte	255                             ; @LPStart Encoding = omit
	.byte	155                             ; @TType Encoding = indirect pcrel sdata4
	.uleb128 Lttbase5-Lttbaseref5
Lttbaseref5:
	.byte	1                               ; Call site Encoding = uleb128
	.uleb128 Lcst_end10-Lcst_begin10
Lcst_begin10:
	.uleb128 Ltmp71-Lfunc_begin10           ; >> Call Site 1 <<
	.uleb128 Ltmp72-Ltmp71                  ;   Call between Ltmp71 and Ltmp72
	.uleb128 Ltmp73-Lfunc_begin10           ;     jumps to Ltmp73
	.byte	1                               ;   On action: 1
Lcst_end10:
	.byte	1                               ; >> Action Record 1 <<
                                        ;   Catch TypeInfo 1
	.byte	0                               ;   No further actions
	.p2align	2, 0x0
                                        ; >> Catch TypeInfos <<
	.long	0                               ; TypeInfo 1
Lttbase5:
	.p2align	2, 0x0
                                        ; -- End function
	.section	__TEXT,__text,regular,pure_instructions
	.private_extern	__ZNSt3__16vectorIfNS_9allocatorIfEEE11__make_iterB8ne180100EPf ; -- Begin function _ZNSt3__16vectorIfNS_9allocatorIfEEE11__make_iterB8ne180100EPf
	.globl	__ZNSt3__16vectorIfNS_9allocatorIfEEE11__make_iterB8ne180100EPf
	.weak_definition	__ZNSt3__16vectorIfNS_9allocatorIfEEE11__make_iterB8ne180100EPf
	.p2align	2
__ZNSt3__16vectorIfNS_9allocatorIfEEE11__make_iterB8ne180100EPf: ; @_ZNSt3__16vectorIfNS_9allocatorIfEEE11__make_iterB8ne180100EPf
	.cfi_startproc
; %bb.0:
	sub	sp, sp, #48
	stp	x29, x30, [sp, #32]             ; 16-byte Folded Spill
	add	x29, sp, #32
	.cfi_def_cfa w29, 16
	.cfi_offset w30, -8
	.cfi_offset w29, -16
	str	x0, [sp, #16]
	str	x1, [sp, #8]
	ldr	x1, [sp, #8]
	sub	x0, x29, #8
	bl	__ZNSt3__111__wrap_iterIPfEC1B8ne180100ES1_
	ldur	x0, [x29, #-8]
	ldp	x29, x30, [sp, #32]             ; 16-byte Folded Reload
	add	sp, sp, #48
	ret
	.cfi_endproc
                                        ; -- End function
	.private_extern	__ZNSt3__111__wrap_iterIPfEC1B8ne180100ES1_ ; -- Begin function _ZNSt3__111__wrap_iterIPfEC1B8ne180100ES1_
	.globl	__ZNSt3__111__wrap_iterIPfEC1B8ne180100ES1_
	.weak_def_can_be_hidden	__ZNSt3__111__wrap_iterIPfEC1B8ne180100ES1_
	.p2align	2
__ZNSt3__111__wrap_iterIPfEC1B8ne180100ES1_: ; @_ZNSt3__111__wrap_iterIPfEC1B8ne180100ES1_
	.cfi_startproc
; %bb.0:
	sub	sp, sp, #48
	stp	x29, x30, [sp, #32]             ; 16-byte Folded Spill
	add	x29, sp, #32
	.cfi_def_cfa w29, 16
	.cfi_offset w30, -8
	.cfi_offset w29, -16
	stur	x0, [x29, #-8]
	str	x1, [sp, #16]
	ldur	x0, [x29, #-8]
	str	x0, [sp, #8]                    ; 8-byte Folded Spill
	ldr	x1, [sp, #16]
	bl	__ZNSt3__111__wrap_iterIPfEC2B8ne180100ES1_
	ldr	x0, [sp, #8]                    ; 8-byte Folded Reload
	ldp	x29, x30, [sp, #32]             ; 16-byte Folded Reload
	add	sp, sp, #48
	ret
	.cfi_endproc
                                        ; -- End function
	.private_extern	__ZNSt3__111__wrap_iterIPfEC2B8ne180100ES1_ ; -- Begin function _ZNSt3__111__wrap_iterIPfEC2B8ne180100ES1_
	.globl	__ZNSt3__111__wrap_iterIPfEC2B8ne180100ES1_
	.weak_def_can_be_hidden	__ZNSt3__111__wrap_iterIPfEC2B8ne180100ES1_
	.p2align	2
__ZNSt3__111__wrap_iterIPfEC2B8ne180100ES1_: ; @_ZNSt3__111__wrap_iterIPfEC2B8ne180100ES1_
	.cfi_startproc
; %bb.0:
	sub	sp, sp, #16
	.cfi_def_cfa_offset 16
	str	x0, [sp, #8]
	str	x1, [sp]
	ldr	x0, [sp, #8]
	ldr	x8, [sp]
	str	x8, [x0]
	add	sp, sp, #16
	ret
	.cfi_endproc
                                        ; -- End function
	.globl	__ZNSt3__125uniform_real_distributionIfEclINS_23mersenne_twister_engineIjLm32ELm624ELm397ELm31ELj2567483615ELm11ELj4294967295ELm7ELj2636928640ELm15ELj4022730752ELm18ELj1812433253EEEEEfRT_RKNS1_10param_typeE ; -- Begin function _ZNSt3__125uniform_real_distributionIfEclINS_23mersenne_twister_engineIjLm32ELm624ELm397ELm31ELj2567483615ELm11ELj4294967295ELm7ELj2636928640ELm15ELj4022730752ELm18ELj1812433253EEEEEfRT_RKNS1_10param_typeE
	.weak_definition	__ZNSt3__125uniform_real_distributionIfEclINS_23mersenne_twister_engineIjLm32ELm624ELm397ELm31ELj2567483615ELm11ELj4294967295ELm7ELj2636928640ELm15ELj4022730752ELm18ELj1812433253EEEEEfRT_RKNS1_10param_typeE
	.p2align	2
__ZNSt3__125uniform_real_distributionIfEclINS_23mersenne_twister_engineIjLm32ELm624ELm397ELm31ELj2567483615ELm11ELj4294967295ELm7ELj2636928640ELm15ELj4022730752ELm18ELj1812433253EEEEEfRT_RKNS1_10param_typeE: ; @_ZNSt3__125uniform_real_distributionIfEclINS_23mersenne_twister_engineIjLm32ELm624ELm397ELm31ELj2567483615ELm11ELj4294967295ELm7ELj2636928640ELm15ELj4022730752ELm18ELj1812433253EEEEEfRT_RKNS1_10param_typeE
	.cfi_startproc
; %bb.0:
	sub	sp, sp, #64
	stp	x29, x30, [sp, #48]             ; 16-byte Folded Spill
	add	x29, sp, #48
	.cfi_def_cfa w29, 16
	.cfi_offset w30, -8
	.cfi_offset w29, -16
	stur	x0, [x29, #-8]
	stur	x1, [x29, #-16]
	str	x2, [sp, #24]
	ldr	x0, [sp, #24]
	bl	__ZNKSt3__125uniform_real_distributionIfE10param_type1bB8ne180100Ev
	str	s0, [sp, #12]                   ; 4-byte Folded Spill
	ldr	x0, [sp, #24]
	bl	__ZNKSt3__125uniform_real_distributionIfE10param_type1aB8ne180100Ev
	fmov	s1, s0
	ldr	s0, [sp, #12]                   ; 4-byte Folded Reload
	fsub	s0, s0, s1
	str	s0, [sp, #20]                   ; 4-byte Folded Spill
	ldur	x0, [x29, #-16]
	bl	__ZNSt3__118generate_canonicalB8ne180100IfLm24ENS_23mersenne_twister_engineIjLm32ELm624ELm397ELm31ELj2567483615ELm11ELj4294967295ELm7ELj2636928640ELm15ELj4022730752ELm18ELj1812433253EEEEET_RT1_
	str	s0, [sp, #16]                   ; 4-byte Folded Spill
	ldr	x0, [sp, #24]
	bl	__ZNKSt3__125uniform_real_distributionIfE10param_type1aB8ne180100Ev
	ldr	s1, [sp, #16]                   ; 4-byte Folded Reload
	fmov	s2, s0
	ldr	s0, [sp, #20]                   ; 4-byte Folded Reload
	fmadd	s0, s0, s1, s2
	ldp	x29, x30, [sp, #48]             ; 16-byte Folded Reload
	add	sp, sp, #64
	ret
	.cfi_endproc
                                        ; -- End function
	.private_extern	__ZNKSt3__125uniform_real_distributionIfE10param_type1bB8ne180100Ev ; -- Begin function _ZNKSt3__125uniform_real_distributionIfE10param_type1bB8ne180100Ev
	.globl	__ZNKSt3__125uniform_real_distributionIfE10param_type1bB8ne180100Ev
	.weak_definition	__ZNKSt3__125uniform_real_distributionIfE10param_type1bB8ne180100Ev
	.p2align	2
__ZNKSt3__125uniform_real_distributionIfE10param_type1bB8ne180100Ev: ; @_ZNKSt3__125uniform_real_distributionIfE10param_type1bB8ne180100Ev
	.cfi_startproc
; %bb.0:
	sub	sp, sp, #16
	.cfi_def_cfa_offset 16
	str	x0, [sp, #8]
	ldr	x8, [sp, #8]
	ldr	s0, [x8, #4]
	add	sp, sp, #16
	ret
	.cfi_endproc
                                        ; -- End function
	.private_extern	__ZNKSt3__125uniform_real_distributionIfE10param_type1aB8ne180100Ev ; -- Begin function _ZNKSt3__125uniform_real_distributionIfE10param_type1aB8ne180100Ev
	.globl	__ZNKSt3__125uniform_real_distributionIfE10param_type1aB8ne180100Ev
	.weak_definition	__ZNKSt3__125uniform_real_distributionIfE10param_type1aB8ne180100Ev
	.p2align	2
__ZNKSt3__125uniform_real_distributionIfE10param_type1aB8ne180100Ev: ; @_ZNKSt3__125uniform_real_distributionIfE10param_type1aB8ne180100Ev
	.cfi_startproc
; %bb.0:
	sub	sp, sp, #16
	.cfi_def_cfa_offset 16
	str	x0, [sp, #8]
	ldr	x8, [sp, #8]
	ldr	s0, [x8]
	add	sp, sp, #16
	ret
	.cfi_endproc
                                        ; -- End function
	.private_extern	__ZNSt3__118generate_canonicalB8ne180100IfLm24ENS_23mersenne_twister_engineIjLm32ELm624ELm397ELm31ELj2567483615ELm11ELj4294967295ELm7ELj2636928640ELm15ELj4022730752ELm18ELj1812433253EEEEET_RT1_ ; -- Begin function _ZNSt3__118generate_canonicalB8ne180100IfLm24ENS_23mersenne_twister_engineIjLm32ELm624ELm397ELm31ELj2567483615ELm11ELj4294967295ELm7ELj2636928640ELm15ELj4022730752ELm18ELj1812433253EEEEET_RT1_
	.globl	__ZNSt3__118generate_canonicalB8ne180100IfLm24ENS_23mersenne_twister_engineIjLm32ELm624ELm397ELm31ELj2567483615ELm11ELj4294967295ELm7ELj2636928640ELm15ELj4022730752ELm18ELj1812433253EEEEET_RT1_
	.weak_definition	__ZNSt3__118generate_canonicalB8ne180100IfLm24ENS_23mersenne_twister_engineIjLm32ELm624ELm397ELm31ELj2567483615ELm11ELj4294967295ELm7ELj2636928640ELm15ELj4022730752ELm18ELj1812433253EEEEET_RT1_
	.p2align	2
__ZNSt3__118generate_canonicalB8ne180100IfLm24ENS_23mersenne_twister_engineIjLm32ELm624ELm397ELm31ELj2567483615ELm11ELj4294967295ELm7ELj2636928640ELm15ELj4022730752ELm18ELj1812433253EEEEET_RT1_: ; @_ZNSt3__118generate_canonicalB8ne180100IfLm24ENS_23mersenne_twister_engineIjLm32ELm624ELm397ELm31ELj2567483615ELm11ELj4294967295ELm7ELj2636928640ELm15ELj4022730752ELm18ELj1812433253EEEEET_RT1_
	.cfi_startproc
; %bb.0:
	sub	sp, sp, #112
	stp	x29, x30, [sp, #96]             ; 16-byte Folded Spill
	add	x29, sp, #96
	.cfi_def_cfa w29, 16
	.cfi_offset w30, -8
	.cfi_offset w29, -16
	stur	x0, [x29, #-8]
	mov	x8, #24                         ; =0x18
	stur	x8, [x29, #-16]
	stur	x8, [x29, #-24]
	mov	x8, #32                         ; =0x20
	stur	x8, [x29, #-32]
	mov	x8, #1                          ; =0x1
	str	x8, [sp, #16]                   ; 8-byte Folded Spill
	stur	x8, [x29, #-40]
	bl	__ZNSt3__123mersenne_twister_engineIjLm32ELm624ELm397ELm31ELj2567483615ELm11ELj4294967295ELm7ELj2636928640ELm15ELj4022730752ELm18ELj1812433253EE3maxB8ne180100Ev
	str	w0, [sp, #12]                   ; 4-byte Folded Spill
	bl	__ZNSt3__123mersenne_twister_engineIjLm32ELm624ELm397ELm31ELj2567483615ELm11ELj4294967295ELm7ELj2636928640ELm15ELj4022730752ELm18ELj1812433253EE3minB8ne180100Ev
	mov	x8, x0
	ldr	w0, [sp, #12]                   ; 4-byte Folded Reload
	subs	w8, w0, w8
	ucvtf	s0, w8
	fmov	s1, #1.00000000
	fadd	s0, s0, s1
	stur	s0, [x29, #-44]
	mov	w8, #1333788672                 ; =0x4f800000
	fmov	s0, w8
	str	s0, [sp, #48]
	ldur	x0, [x29, #-8]
	bl	__ZNSt3__123mersenne_twister_engineIjLm32ELm624ELm397ELm31ELj2567483615ELm11ELj4294967295ELm7ELj2636928640ELm15ELj4022730752ELm18ELj1812433253EEclEv
	str	w0, [sp, #28]                   ; 4-byte Folded Spill
	bl	__ZNSt3__123mersenne_twister_engineIjLm32ELm624ELm397ELm31ELj2567483615ELm11ELj4294967295ELm7ELj2636928640ELm15ELj4022730752ELm18ELj1812433253EE3minB8ne180100Ev
	ldr	x8, [sp, #16]                   ; 8-byte Folded Reload
	mov	x9, x0
	ldr	w0, [sp, #28]                   ; 4-byte Folded Reload
	subs	w9, w0, w9
	ucvtf	s0, w9
	str	s0, [sp, #44]
	str	x8, [sp, #32]
	b	LBB111_1
LBB111_1:                               ; =>This Inner Loop Header: Depth=1
	ldr	x8, [sp, #32]
	subs	x8, x8, #1
	cset	w8, hs
	tbnz	w8, #0, LBB111_4
	b	LBB111_2
LBB111_2:                               ;   in Loop: Header=BB111_1 Depth=1
	ldur	x0, [x29, #-8]
	bl	__ZNSt3__123mersenne_twister_engineIjLm32ELm624ELm397ELm31ELj2567483615ELm11ELj4294967295ELm7ELj2636928640ELm15ELj4022730752ELm18ELj1812433253EEclEv
	str	w0, [sp, #8]                    ; 4-byte Folded Spill
	bl	__ZNSt3__123mersenne_twister_engineIjLm32ELm624ELm397ELm31ELj2567483615ELm11ELj4294967295ELm7ELj2636928640ELm15ELj4022730752ELm18ELj1812433253EE3minB8ne180100Ev
	mov	x8, x0
	ldr	w0, [sp, #8]                    ; 4-byte Folded Reload
	subs	w8, w0, w8
	ucvtf	s0, w8
	ldr	s1, [sp, #48]
	ldr	s2, [sp, #44]
	fmadd	s0, s0, s1, s2
	str	s0, [sp, #44]
	b	LBB111_3
LBB111_3:                               ;   in Loop: Header=BB111_1 Depth=1
	ldr	x8, [sp, #32]
	add	x8, x8, #1
	str	x8, [sp, #32]
	ldr	s0, [sp, #48]
	mov	w8, #1333788672                 ; =0x4f800000
	fmov	s1, w8
	fmul	s0, s0, s1
	str	s0, [sp, #48]
	b	LBB111_1
LBB111_4:
	ldr	s0, [sp, #44]
	ldr	s1, [sp, #48]
	fdiv	s0, s0, s1
	ldp	x29, x30, [sp, #96]             ; 16-byte Folded Reload
	add	sp, sp, #112
	ret
	.cfi_endproc
                                        ; -- End function
	.private_extern	__ZNSt3__123mersenne_twister_engineIjLm32ELm624ELm397ELm31ELj2567483615ELm11ELj4294967295ELm7ELj2636928640ELm15ELj4022730752ELm18ELj1812433253EE3maxB8ne180100Ev ; -- Begin function _ZNSt3__123mersenne_twister_engineIjLm32ELm624ELm397ELm31ELj2567483615ELm11ELj4294967295ELm7ELj2636928640ELm15ELj4022730752ELm18ELj1812433253EE3maxB8ne180100Ev
	.globl	__ZNSt3__123mersenne_twister_engineIjLm32ELm624ELm397ELm31ELj2567483615ELm11ELj4294967295ELm7ELj2636928640ELm15ELj4022730752ELm18ELj1812433253EE3maxB8ne180100Ev
	.weak_definition	__ZNSt3__123mersenne_twister_engineIjLm32ELm624ELm397ELm31ELj2567483615ELm11ELj4294967295ELm7ELj2636928640ELm15ELj4022730752ELm18ELj1812433253EE3maxB8ne180100Ev
	.p2align	2
__ZNSt3__123mersenne_twister_engineIjLm32ELm624ELm397ELm31ELj2567483615ELm11ELj4294967295ELm7ELj2636928640ELm15ELj4022730752ELm18ELj1812433253EE3maxB8ne180100Ev: ; @_ZNSt3__123mersenne_twister_engineIjLm32ELm624ELm397ELm31ELj2567483615ELm11ELj4294967295ELm7ELj2636928640ELm15ELj4022730752ELm18ELj1812433253EE3maxB8ne180100Ev
	.cfi_startproc
; %bb.0:
	mov	w0, #-1                         ; =0xffffffff
	ret
	.cfi_endproc
                                        ; -- End function
	.private_extern	__ZNSt3__123mersenne_twister_engineIjLm32ELm624ELm397ELm31ELj2567483615ELm11ELj4294967295ELm7ELj2636928640ELm15ELj4022730752ELm18ELj1812433253EE3minB8ne180100Ev ; -- Begin function _ZNSt3__123mersenne_twister_engineIjLm32ELm624ELm397ELm31ELj2567483615ELm11ELj4294967295ELm7ELj2636928640ELm15ELj4022730752ELm18ELj1812433253EE3minB8ne180100Ev
	.globl	__ZNSt3__123mersenne_twister_engineIjLm32ELm624ELm397ELm31ELj2567483615ELm11ELj4294967295ELm7ELj2636928640ELm15ELj4022730752ELm18ELj1812433253EE3minB8ne180100Ev
	.weak_definition	__ZNSt3__123mersenne_twister_engineIjLm32ELm624ELm397ELm31ELj2567483615ELm11ELj4294967295ELm7ELj2636928640ELm15ELj4022730752ELm18ELj1812433253EE3minB8ne180100Ev
	.p2align	2
__ZNSt3__123mersenne_twister_engineIjLm32ELm624ELm397ELm31ELj2567483615ELm11ELj4294967295ELm7ELj2636928640ELm15ELj4022730752ELm18ELj1812433253EE3minB8ne180100Ev: ; @_ZNSt3__123mersenne_twister_engineIjLm32ELm624ELm397ELm31ELj2567483615ELm11ELj4294967295ELm7ELj2636928640ELm15ELj4022730752ELm18ELj1812433253EE3minB8ne180100Ev
	.cfi_startproc
; %bb.0:
	mov	w0, #0                          ; =0x0
	ret
	.cfi_endproc
                                        ; -- End function
	.private_extern	__ZNSt3__123mersenne_twister_engineIjLm32ELm624ELm397ELm31ELj2567483615ELm11ELj4294967295ELm7ELj2636928640ELm15ELj4022730752ELm18ELj1812433253EEclEv ; -- Begin function _ZNSt3__123mersenne_twister_engineIjLm32ELm624ELm397ELm31ELj2567483615ELm11ELj4294967295ELm7ELj2636928640ELm15ELj4022730752ELm18ELj1812433253EEclEv
	.globl	__ZNSt3__123mersenne_twister_engineIjLm32ELm624ELm397ELm31ELj2567483615ELm11ELj4294967295ELm7ELj2636928640ELm15ELj4022730752ELm18ELj1812433253EEclEv
	.weak_definition	__ZNSt3__123mersenne_twister_engineIjLm32ELm624ELm397ELm31ELj2567483615ELm11ELj4294967295ELm7ELj2636928640ELm15ELj4022730752ELm18ELj1812433253EEclEv
	.p2align	2
__ZNSt3__123mersenne_twister_engineIjLm32ELm624ELm397ELm31ELj2567483615ELm11ELj4294967295ELm7ELj2636928640ELm15ELj4022730752ELm18ELj1812433253EEclEv: ; @_ZNSt3__123mersenne_twister_engineIjLm32ELm624ELm397ELm31ELj2567483615ELm11ELj4294967295ELm7ELj2636928640ELm15ELj4022730752ELm18ELj1812433253EEclEv
	.cfi_startproc
; %bb.0:
	sub	sp, sp, #80
	stp	x29, x30, [sp, #64]             ; 16-byte Folded Spill
	add	x29, sp, #64
	.cfi_def_cfa w29, 16
	.cfi_offset w30, -8
	.cfi_offset w29, -16
	stur	x0, [x29, #-8]
	ldur	x8, [x29, #-8]
	str	x8, [sp, #16]                   ; 8-byte Folded Spill
	ldr	x9, [x8, #2496]
	add	x9, x9, #1
	mov	x11, #624                       ; =0x270
	udiv	x10, x9, x11
	mul	x10, x10, x11
	subs	x9, x9, x10
	stur	x9, [x29, #-16]
	mov	w9, #2147483647                 ; =0x7fffffff
	stur	w9, [x29, #-20]
	ldr	x9, [x8, #2496]
	ldr	w9, [x8, x9, lsl #2]
	and	w9, w9, #0x80000000
	ldur	x10, [x29, #-16]
	ldr	w10, [x8, x10, lsl #2]
	and	w10, w10, #0x7fffffff
	orr	w9, w9, w10
	stur	w9, [x29, #-24]
	ldr	x9, [x8, #2496]
	add	x9, x9, #397
	udiv	x10, x9, x11
	mul	x10, x10, x11
	subs	x9, x9, x10
	str	x9, [sp, #32]
	ldr	x9, [sp, #32]
	ldr	w8, [x8, x9, lsl #2]
	str	w8, [sp, #8]                    ; 4-byte Folded Spill
	ldur	w0, [x29, #-24]
	bl	__ZNSt3__123mersenne_twister_engineIjLm32ELm624ELm397ELm31ELj2567483615ELm11ELj4294967295ELm7ELj2636928640ELm15ELj4022730752ELm18ELj1812433253EE8__rshiftB8ne180100ILm1ELi0EEEjj
	ldr	w9, [sp, #8]                    ; 4-byte Folded Reload
	ldr	x8, [sp, #16]                   ; 8-byte Folded Reload
	eor	w9, w9, w0
	ldur	w10, [x29, #-24]
	and	w11, w10, #0x1
	mov	w10, #45279                     ; =0xb0df
	movk	w10, #39176, lsl #16
	mul	w10, w10, w11
	eor	w9, w9, w10
	ldr	x10, [x8, #2496]
	str	w9, [x8, x10, lsl #2]
	ldr	x9, [x8, #2496]
	ldr	w9, [x8, x9, lsl #2]
	str	w9, [sp, #12]                   ; 4-byte Folded Spill
	ldr	x9, [x8, #2496]
	ldr	w0, [x8, x9, lsl #2]
	bl	__ZNSt3__123mersenne_twister_engineIjLm32ELm624ELm397ELm31ELj2567483615ELm11ELj4294967295ELm7ELj2636928640ELm15ELj4022730752ELm18ELj1812433253EE8__rshiftB8ne180100ILm11ELi0EEEjj
	ldr	w8, [sp, #12]                   ; 4-byte Folded Reload
	ldr	x9, [sp, #16]                   ; 8-byte Folded Reload
	mov	w10, #-1                        ; =0xffffffff
	and	w10, w0, w10
	eor	w8, w8, w10
	str	w8, [sp, #28]
	ldur	x8, [x29, #-16]
	str	x8, [x9, #2496]
	ldr	w0, [sp, #28]
	bl	__ZNSt3__123mersenne_twister_engineIjLm32ELm624ELm397ELm31ELj2567483615ELm11ELj4294967295ELm7ELj2636928640ELm15ELj4022730752ELm18ELj1812433253EE8__lshiftB8ne180100ILm7ELi0EEEjj
	mov	w8, #22144                      ; =0x5680
	movk	w8, #40236, lsl #16
	and	w9, w0, w8
	ldr	w8, [sp, #28]
	eor	w8, w8, w9
	str	w8, [sp, #28]
	ldr	w0, [sp, #28]
	bl	__ZNSt3__123mersenne_twister_engineIjLm32ELm624ELm397ELm31ELj2567483615ELm11ELj4294967295ELm7ELj2636928640ELm15ELj4022730752ELm18ELj1812433253EE8__lshiftB8ne180100ILm15ELi0EEEjj
	mov	w8, #-272236544                 ; =0xefc60000
	and	w9, w0, w8
	ldr	w8, [sp, #28]
	eor	w8, w8, w9
	str	w8, [sp, #28]
	ldr	w8, [sp, #28]
	str	w8, [sp, #24]                   ; 4-byte Folded Spill
	ldr	w0, [sp, #28]
	bl	__ZNSt3__123mersenne_twister_engineIjLm32ELm624ELm397ELm31ELj2567483615ELm11ELj4294967295ELm7ELj2636928640ELm15ELj4022730752ELm18ELj1812433253EE8__rshiftB8ne180100ILm18ELi0EEEjj
	ldr	w8, [sp, #24]                   ; 4-byte Folded Reload
	eor	w0, w8, w0
	ldp	x29, x30, [sp, #64]             ; 16-byte Folded Reload
	add	sp, sp, #80
	ret
	.cfi_endproc
                                        ; -- End function
	.globl	__ZNSt3__123mersenne_twister_engineIjLm32ELm624ELm397ELm31ELj2567483615ELm11ELj4294967295ELm7ELj2636928640ELm15ELj4022730752ELm18ELj1812433253EE8__rshiftB8ne180100ILm1ELi0EEEjj ; -- Begin function _ZNSt3__123mersenne_twister_engineIjLm32ELm624ELm397ELm31ELj2567483615ELm11ELj4294967295ELm7ELj2636928640ELm15ELj4022730752ELm18ELj1812433253EE8__rshiftB8ne180100ILm1ELi0EEEjj
	.weak_definition	__ZNSt3__123mersenne_twister_engineIjLm32ELm624ELm397ELm31ELj2567483615ELm11ELj4294967295ELm7ELj2636928640ELm15ELj4022730752ELm18ELj1812433253EE8__rshiftB8ne180100ILm1ELi0EEEjj
	.p2align	2
__ZNSt3__123mersenne_twister_engineIjLm32ELm624ELm397ELm31ELj2567483615ELm11ELj4294967295ELm7ELj2636928640ELm15ELj4022730752ELm18ELj1812433253EE8__rshiftB8ne180100ILm1ELi0EEEjj: ; @_ZNSt3__123mersenne_twister_engineIjLm32ELm624ELm397ELm31ELj2567483615ELm11ELj4294967295ELm7ELj2636928640ELm15ELj4022730752ELm18ELj1812433253EE8__rshiftB8ne180100ILm1ELi0EEEjj
	.cfi_startproc
; %bb.0:
	sub	sp, sp, #16
	.cfi_def_cfa_offset 16
	str	w0, [sp, #12]
	ldr	w8, [sp, #12]
	lsr	w0, w8, #1
	add	sp, sp, #16
	ret
	.cfi_endproc
                                        ; -- End function
	.globl	__ZNSt3__123mersenne_twister_engineIjLm32ELm624ELm397ELm31ELj2567483615ELm11ELj4294967295ELm7ELj2636928640ELm15ELj4022730752ELm18ELj1812433253EE8__rshiftB8ne180100ILm11ELi0EEEjj ; -- Begin function _ZNSt3__123mersenne_twister_engineIjLm32ELm624ELm397ELm31ELj2567483615ELm11ELj4294967295ELm7ELj2636928640ELm15ELj4022730752ELm18ELj1812433253EE8__rshiftB8ne180100ILm11ELi0EEEjj
	.weak_definition	__ZNSt3__123mersenne_twister_engineIjLm32ELm624ELm397ELm31ELj2567483615ELm11ELj4294967295ELm7ELj2636928640ELm15ELj4022730752ELm18ELj1812433253EE8__rshiftB8ne180100ILm11ELi0EEEjj
	.p2align	2
__ZNSt3__123mersenne_twister_engineIjLm32ELm624ELm397ELm31ELj2567483615ELm11ELj4294967295ELm7ELj2636928640ELm15ELj4022730752ELm18ELj1812433253EE8__rshiftB8ne180100ILm11ELi0EEEjj: ; @_ZNSt3__123mersenne_twister_engineIjLm32ELm624ELm397ELm31ELj2567483615ELm11ELj4294967295ELm7ELj2636928640ELm15ELj4022730752ELm18ELj1812433253EE8__rshiftB8ne180100ILm11ELi0EEEjj
	.cfi_startproc
; %bb.0:
	sub	sp, sp, #16
	.cfi_def_cfa_offset 16
	str	w0, [sp, #12]
	ldr	w8, [sp, #12]
	lsr	w0, w8, #11
	add	sp, sp, #16
	ret
	.cfi_endproc
                                        ; -- End function
	.globl	__ZNSt3__123mersenne_twister_engineIjLm32ELm624ELm397ELm31ELj2567483615ELm11ELj4294967295ELm7ELj2636928640ELm15ELj4022730752ELm18ELj1812433253EE8__lshiftB8ne180100ILm7ELi0EEEjj ; -- Begin function _ZNSt3__123mersenne_twister_engineIjLm32ELm624ELm397ELm31ELj2567483615ELm11ELj4294967295ELm7ELj2636928640ELm15ELj4022730752ELm18ELj1812433253EE8__lshiftB8ne180100ILm7ELi0EEEjj
	.weak_definition	__ZNSt3__123mersenne_twister_engineIjLm32ELm624ELm397ELm31ELj2567483615ELm11ELj4294967295ELm7ELj2636928640ELm15ELj4022730752ELm18ELj1812433253EE8__lshiftB8ne180100ILm7ELi0EEEjj
	.p2align	2
__ZNSt3__123mersenne_twister_engineIjLm32ELm624ELm397ELm31ELj2567483615ELm11ELj4294967295ELm7ELj2636928640ELm15ELj4022730752ELm18ELj1812433253EE8__lshiftB8ne180100ILm7ELi0EEEjj: ; @_ZNSt3__123mersenne_twister_engineIjLm32ELm624ELm397ELm31ELj2567483615ELm11ELj4294967295ELm7ELj2636928640ELm15ELj4022730752ELm18ELj1812433253EE8__lshiftB8ne180100ILm7ELi0EEEjj
	.cfi_startproc
; %bb.0:
	sub	sp, sp, #16
	.cfi_def_cfa_offset 16
	str	w0, [sp, #12]
	ldr	w9, [sp, #12]
	mov	w8, #-1                         ; =0xffffffff
	and	w0, w8, w9, lsl #7
	add	sp, sp, #16
	ret
	.cfi_endproc
                                        ; -- End function
	.globl	__ZNSt3__123mersenne_twister_engineIjLm32ELm624ELm397ELm31ELj2567483615ELm11ELj4294967295ELm7ELj2636928640ELm15ELj4022730752ELm18ELj1812433253EE8__lshiftB8ne180100ILm15ELi0EEEjj ; -- Begin function _ZNSt3__123mersenne_twister_engineIjLm32ELm624ELm397ELm31ELj2567483615ELm11ELj4294967295ELm7ELj2636928640ELm15ELj4022730752ELm18ELj1812433253EE8__lshiftB8ne180100ILm15ELi0EEEjj
	.weak_definition	__ZNSt3__123mersenne_twister_engineIjLm32ELm624ELm397ELm31ELj2567483615ELm11ELj4294967295ELm7ELj2636928640ELm15ELj4022730752ELm18ELj1812433253EE8__lshiftB8ne180100ILm15ELi0EEEjj
	.p2align	2
__ZNSt3__123mersenne_twister_engineIjLm32ELm624ELm397ELm31ELj2567483615ELm11ELj4294967295ELm7ELj2636928640ELm15ELj4022730752ELm18ELj1812433253EE8__lshiftB8ne180100ILm15ELi0EEEjj: ; @_ZNSt3__123mersenne_twister_engineIjLm32ELm624ELm397ELm31ELj2567483615ELm11ELj4294967295ELm7ELj2636928640ELm15ELj4022730752ELm18ELj1812433253EE8__lshiftB8ne180100ILm15ELi0EEEjj
	.cfi_startproc
; %bb.0:
	sub	sp, sp, #16
	.cfi_def_cfa_offset 16
	str	w0, [sp, #12]
	ldr	w9, [sp, #12]
	mov	w8, #-1                         ; =0xffffffff
	and	w0, w8, w9, lsl #15
	add	sp, sp, #16
	ret
	.cfi_endproc
                                        ; -- End function
	.globl	__ZNSt3__123mersenne_twister_engineIjLm32ELm624ELm397ELm31ELj2567483615ELm11ELj4294967295ELm7ELj2636928640ELm15ELj4022730752ELm18ELj1812433253EE8__rshiftB8ne180100ILm18ELi0EEEjj ; -- Begin function _ZNSt3__123mersenne_twister_engineIjLm32ELm624ELm397ELm31ELj2567483615ELm11ELj4294967295ELm7ELj2636928640ELm15ELj4022730752ELm18ELj1812433253EE8__rshiftB8ne180100ILm18ELi0EEEjj
	.weak_definition	__ZNSt3__123mersenne_twister_engineIjLm32ELm624ELm397ELm31ELj2567483615ELm11ELj4294967295ELm7ELj2636928640ELm15ELj4022730752ELm18ELj1812433253EE8__rshiftB8ne180100ILm18ELi0EEEjj
	.p2align	2
__ZNSt3__123mersenne_twister_engineIjLm32ELm624ELm397ELm31ELj2567483615ELm11ELj4294967295ELm7ELj2636928640ELm15ELj4022730752ELm18ELj1812433253EE8__rshiftB8ne180100ILm18ELi0EEEjj: ; @_ZNSt3__123mersenne_twister_engineIjLm32ELm624ELm397ELm31ELj2567483615ELm11ELj4294967295ELm7ELj2636928640ELm15ELj4022730752ELm18ELj1812433253EE8__rshiftB8ne180100ILm18ELi0EEEjj
	.cfi_startproc
; %bb.0:
	sub	sp, sp, #16
	.cfi_def_cfa_offset 16
	str	w0, [sp, #12]
	ldr	w8, [sp, #12]
	lsr	w0, w8, #18
	add	sp, sp, #16
	ret
	.cfi_endproc
                                        ; -- End function
	.section	__TEXT,__cstring,cstring_literals
l_.str:                                 ; @.str
	.asciz	"/dev/urandom"

l_.str.1:                               ; @.str.1
	.asciz	"vector"

.subsections_via_symbols
